ARM GAS  C:\Users\User\AppData\Local\Temp\cc1EfM4f.s 			page 1


   1              		.syntax unified
   2              		.cpu cortex-m3
   3              		.fpu softvfp
   4              		.eabi_attribute 20, 1
   5              		.eabi_attribute 21, 1
   6              		.eabi_attribute 23, 3
   7              		.eabi_attribute 24, 1
   8              		.eabi_attribute 25, 1
   9              		.eabi_attribute 26, 1
  10              		.eabi_attribute 30, 1
  11              		.eabi_attribute 34, 1
  12              		.eabi_attribute 18, 4
  13              		.thumb
  14              		.syntax unified
  15              		.file	"main.c"
  16              		.text
  17              	.Ltext0:
  18              		.cfi_sections	.debug_frame
  19              		.section	.text.isr_StopInterval,"ax",%progbits
  20              		.align	2
  21              		.global	isr_StopInterval
  22              		.thumb
  23              		.thumb_func
  24              		.type	isr_StopInterval, %function
  25              	isr_StopInterval:
  26              	.LFB65:
  27              		.file 1 "main.c"
   1:main.c        **** /* ========================================
   2:main.c        ****  * Fully working code: 
   3:main.c        ****  * PWM      : 
   4:main.c        ****  * Encoder  : 
   5:main.c        ****  * ADC      :
   6:main.c        ****  * USB      : port displays speed and position.
   7:main.c        ****  * CMD: "PW xx"
   8:main.c        ****  * Copyright Univ of Auckland, 2016
   9:main.c        ****  * All Rights Reserved
  10:main.c        ****  * UNPUBLISHED, LICENSED SOFTWARE.
  11:main.c        ****  *
  12:main.c        ****  * CONFIDENTIAL AND PROPRIETARY INFORMATION
  13:main.c        ****  * WHICH IS THE PROPERTY OF Univ of Auckland.
  14:main.c        ****  *
  15:main.c        ****  * ========================================
  16:main.c        **** */
  17:main.c        **** #include <stdio.h>
  18:main.c        **** #include <string.h>
  19:main.c        **** #include <stdlib.h>
  20:main.c        **** #include <stdbool.h>
  21:main.c        **** #include <math.h>
  22:main.c        **** #include <project.h>
  23:main.c        **** //* ========================================
  24:main.c        **** #include "defines.h"
  25:main.c        **** #include "vars.h"
  26:main.c        **** //* ========================================
  27:main.c        **** #define ENCODER_M1 5
  28:main.c        **** #define ENCODER_M2 15
  29:main.c        **** //* ========================================
  30:main.c        **** void usbPutString(char *s);
ARM GAS  C:\Users\User\AppData\Local\Temp\cc1EfM4f.s 			page 2


  31:main.c        **** void usbPutChar(char c);
  32:main.c        **** void handle_usb();
  33:main.c        **** //* ========================================
  34:main.c        **** enum Motion_State {
  35:main.c        ****     FORWARD,
  36:main.c        ****     LEFT, 
  37:main.c        ****     RIGHT, 
  38:main.c        ****     BACKWARD,
  39:main.c        ****     WAIT_STOP,
  40:main.c        ****     END,
  41:main.c        ****     OTHER
  42:main.c        **** };
  43:main.c        **** //* ========================================
  44:main.c        **** void M1_set_speed();
  45:main.c        **** void M2_set_speed();
  46:main.c        **** void movement(enum Motion_State);
  47:main.c        **** void decide_motion();
  48:main.c        **** void speed_balance();
  49:main.c        **** char* enumToString(enum Motion_State);
  50:main.c        **** void bias_check();
  51:main.c        **** //* ========================================
  52:main.c        **** volatile enum Motion_State current_Motion = OTHER, next_Motion = OTHER;
  53:main.c        **** volatile int Stop_flag = 1, decoder_flag = 0, speed_flag = 0;
  54:main.c        **** volatile int count_waitstop = 0, count_encoder = 0, count_forward = 0;
  55:main.c        **** volatile int c_M1, c_M2, speed_M1 = 65, speed_M2 = 65;
  56:main.c        **** //* ========================================
  57:main.c        **** CY_ISR(isr_UpdateState) {
  58:main.c        ****     current_Motion = next_Motion;
  59:main.c        ****     count_waitstop++;
  60:main.c        ****     count_encoder++;
  61:main.c        ****     // wait stop signal timer
  62:main.c        ****     if (count_waitstop == 200) {
  63:main.c        ****         Stop_flag = 1;
  64:main.c        ****         count_waitstop = 0;
  65:main.c        ****     }
  66:main.c        ****     // encoder timer
  67:main.c        ****     if (count_encoder == 5) {
  68:main.c        ****         decoder_flag = 1;
  69:main.c        ****         count_encoder = 0;
  70:main.c        ****         if (count_forward >= 5) {
  71:main.c        ****             speed_flag = 1;
  72:main.c        ****             count_forward = 0;
  73:main.c        ****         }
  74:main.c        ****     }
  75:main.c        ****     // forward timer
  76:main.c        ****     if (current_Motion == FORWARD) {
  77:main.c        ****         count_forward++;
  78:main.c        ****     } else {
  79:main.c        ****         count_forward = 0;
  80:main.c        ****     }
  81:main.c        ****     if (current_Motion == FORWARD) {
  82:main.c        ****         bias_check();
  83:main.c        ****     }
  84:main.c        **** }
  85:main.c        **** CY_ISR(isr_StopInterval) {
  28              		.loc 1 85 0
  29              		.cfi_startproc
ARM GAS  C:\Users\User\AppData\Local\Temp\cc1EfM4f.s 			page 3


  30              		@ args = 0, pretend = 0, frame = 0
  31              		@ frame_needed = 0, uses_anonymous_args = 0
  32 0000 08B5     		push	{r3, lr}
  33              		.cfi_def_cfa_offset 8
  34              		.cfi_offset 3, -8
  35              		.cfi_offset 14, -4
  86:main.c        ****     current_Motion = next_Motion;
  36              		.loc 1 86 0
  37 0002 064A     		ldr	r2, .L3
  38 0004 1378     		ldrb	r3, [r2]	@ zero_extendqisi2
  39 0006 DBB2     		uxtb	r3, r3
  40 0008 5370     		strb	r3, [r2, #1]
  87:main.c        ****     Timer_2_Sleep();
  41              		.loc 1 87 0
  42 000a FFF7FEFF 		bl	Timer_2_Sleep
  43              	.LVL0:
  88:main.c        ****     Timer_2_Init();
  44              		.loc 1 88 0
  45 000e FFF7FEFF 		bl	Timer_2_Init
  46              	.LVL1:
  89:main.c        ****     count_waitstop = 0;
  47              		.loc 1 89 0
  48 0012 0022     		movs	r2, #0
  49 0014 024B     		ldr	r3, .L3+4
  50 0016 1A60     		str	r2, [r3]
  51 0018 08BD     		pop	{r3, pc}
  52              	.L4:
  53 001a 00BF     		.align	2
  54              	.L3:
  55 001c 00000000 		.word	.LANCHOR0
  56 0020 00000000 		.word	.LANCHOR1
  57              		.cfi_endproc
  58              	.LFE65:
  59              		.size	isr_StopInterval, .-isr_StopInterval
  60              		.section	.text.usbPutString,"ax",%progbits
  61              		.align	2
  62              		.global	usbPutString
  63              		.thumb
  64              		.thumb_func
  65              		.type	usbPutString, %function
  66              	usbPutString:
  67              	.LFB67:
  90:main.c        **** }
  91:main.c        **** 
  92:main.c        **** int main()
  93:main.c        **** {   
  94:main.c        **** // ----- INITIALIZATIONS ----------
  95:main.c        ****     CYGlobalIntEnable;
  96:main.c        **** // ------USB SETUP ----------------    
  97:main.c        ****     #ifdef USE_USB    
  98:main.c        ****         USBUART_Start(0,USBUART_5V_OPERATION);
  99:main.c        ****     #endif
 100:main.c        ****     // USBUART
 101:main.c        ****     RF_BT_SELECT_Write(0);
 102:main.c        **** // ------Motor SETUP----------------------
 103:main.c        ****     PWM_1_Start();
 104:main.c        ****     PWM_2_Start();
ARM GAS  C:\Users\User\AppData\Local\Temp\cc1EfM4f.s 			page 4


 105:main.c        ****     M1_D1_Write(1);
 106:main.c        ****     M1_D1_Write(1);
 107:main.c        **** // ------TIMER SETUP----------------------
 108:main.c        ****     Timer_1_Start();
 109:main.c        ****     isr_US_StartEx(isr_UpdateState);
 110:main.c        ****     
 111:main.c        ****     Timer_2_Start();
 112:main.c        ****     Timer_2_Sleep();
 113:main.c        ****     Timer_2_Init();
 114:main.c        ****     isr_T2_StartEx(isr_StopInterval);
 115:main.c        **** // ------DECODER SETUP----------------------
 116:main.c        ****     QuadDec_M1_Start();
 117:main.c        ****     QuadDec_M2_Start();
 118:main.c        ****     QuadDec_M1_SetCounter(0);
 119:main.c        ****     QuadDec_M2_SetCounter(0);
 120:main.c        ****     
 121:main.c        ****     for(;;) 
 122:main.c        ****     {
 123:main.c        ****         decide_motion();
 124:main.c        ****         movement(current_Motion);
 125:main.c        ****         
 126:main.c        ****         
 127:main.c        ****         if (decoder_flag) {
 128:main.c        ****             c_M1 = QuadDec_M1_GetCounter();
 129:main.c        ****             c_M2 = QuadDec_M2_GetCounter();
 130:main.c        ****             
 131:main.c        ****             if (speed_flag) {
 132:main.c        ****                 speed_balance();
 133:main.c        ****                 speed_flag = 0;
 134:main.c        ****             }
 135:main.c        ****             
 136:main.c        ****             QuadDec_M1_SetCounter(0);
 137:main.c        ****             QuadDec_M2_SetCounter(0);
 138:main.c        ****             
 139:main.c        ****             //usbPutString("M1:");
 140:main.c        ****             //usbPutString(itoa(c_M1, line, 10));
 141:main.c        ****             //usbPutString(" and M2:");
 142:main.c        ****             //usbPutString(itoa(c_M2, line, 10));
 143:main.c        ****             //usbPutString("\t\t C_Motion - ");
 144:main.c        ****             //usbPutString(enumToString(current_Motion));
 145:main.c        ****             //usbPutString("\n\r");
 146:main.c        ****             
 147:main.c        ****             
 148:main.c        ****             decoder_flag = 0;
 149:main.c        ****         }
 150:main.c        ****     }
 151:main.c        **** }
 152:main.c        **** //* ========================================
 153:main.c        **** void usbPutString(char *s) {
  68              		.loc 1 153 0
  69              		.cfi_startproc
  70              		@ args = 0, pretend = 0, frame = 0
  71              		@ frame_needed = 0, uses_anonymous_args = 0
  72              	.LVL2:
  73 0000 10B5     		push	{r4, lr}
  74              		.cfi_def_cfa_offset 8
  75              		.cfi_offset 4, -8
ARM GAS  C:\Users\User\AppData\Local\Temp\cc1EfM4f.s 			page 5


  76              		.cfi_offset 14, -4
  77 0002 0446     		mov	r4, r0
  78              	.LVL3:
  79              	.L6:
 154:main.c        **** // !! Assumes that *s is a string with allocated space >=64 chars     
 155:main.c        **** //  Since USB implementation retricts data packets to 64 chars, this function truncates the
 156:main.c        **** //  length to 62 char (63rd char is a '!')
 157:main.c        **** 
 158:main.c        **** #ifdef USE_USB     
 159:main.c        ****     while (USBUART_CDCIsReady() == 0);
  80              		.loc 1 159 0 discriminator 1
  81 0004 FFF7FEFF 		bl	USBUART_CDCIsReady
  82              	.LVL4:
  83 0008 0028     		cmp	r0, #0
  84 000a FBD0     		beq	.L6
 160:main.c        ****     s[63]='\0';
  85              		.loc 1 160 0
  86 000c 0023     		movs	r3, #0
  87 000e 84F83F30 		strb	r3, [r4, #63]
 161:main.c        ****     s[62]='!';
  88              		.loc 1 161 0
  89 0012 2123     		movs	r3, #33
  90 0014 84F83E30 		strb	r3, [r4, #62]
 162:main.c        ****     USBUART_PutData((uint8*)s,strlen(s));
  91              		.loc 1 162 0
  92 0018 2046     		mov	r0, r4
  93 001a FFF7FEFF 		bl	strlen
  94              	.LVL5:
  95 001e 81B2     		uxth	r1, r0
  96 0020 2046     		mov	r0, r4
  97 0022 FFF7FEFF 		bl	USBUART_PutData
  98              	.LVL6:
  99 0026 10BD     		pop	{r4, pc}
 100              		.cfi_endproc
 101              	.LFE67:
 102              		.size	usbPutString, .-usbPutString
 103              		.section	.text.usbPutChar,"ax",%progbits
 104              		.align	2
 105              		.global	usbPutChar
 106              		.thumb
 107              		.thumb_func
 108              		.type	usbPutChar, %function
 109              	usbPutChar:
 110              	.LFB68:
 163:main.c        **** #endif
 164:main.c        **** }
 165:main.c        **** //* ========================================
 166:main.c        **** void usbPutChar(char c) {
 111              		.loc 1 166 0
 112              		.cfi_startproc
 113              		@ args = 0, pretend = 0, frame = 0
 114              		@ frame_needed = 0, uses_anonymous_args = 0
 115              	.LVL7:
 116 0000 10B5     		push	{r4, lr}
 117              		.cfi_def_cfa_offset 8
 118              		.cfi_offset 4, -8
 119              		.cfi_offset 14, -4
ARM GAS  C:\Users\User\AppData\Local\Temp\cc1EfM4f.s 			page 6


 120 0002 0446     		mov	r4, r0
 121              	.LVL8:
 122              	.L9:
 167:main.c        **** #ifdef USE_USB     
 168:main.c        ****     while (USBUART_CDCIsReady() == 0);
 123              		.loc 1 168 0 discriminator 1
 124 0004 FFF7FEFF 		bl	USBUART_CDCIsReady
 125              	.LVL9:
 126 0008 0028     		cmp	r0, #0
 127 000a FBD0     		beq	.L9
 169:main.c        ****     USBUART_PutChar(c);
 128              		.loc 1 169 0
 129 000c 2046     		mov	r0, r4
 130 000e FFF7FEFF 		bl	USBUART_PutChar
 131              	.LVL10:
 132 0012 10BD     		pop	{r4, pc}
 133              		.cfi_endproc
 134              	.LFE68:
 135              		.size	usbPutChar, .-usbPutChar
 136              		.section	.text.handle_usb,"ax",%progbits
 137              		.align	2
 138              		.global	handle_usb
 139              		.thumb
 140              		.thumb_func
 141              		.type	handle_usb, %function
 142              	handle_usb:
 143              	.LFB69:
 170:main.c        **** #endif    
 171:main.c        **** }
 172:main.c        **** //* ========================================
 173:main.c        **** void handle_usb() {
 144              		.loc 1 173 0
 145              		.cfi_startproc
 146              		@ args = 0, pretend = 0, frame = 0
 147              		@ frame_needed = 0, uses_anonymous_args = 0
 148 0000 10B5     		push	{r4, lr}
 149              		.cfi_def_cfa_offset 8
 150              		.cfi_offset 4, -8
 151              		.cfi_offset 14, -4
 174:main.c        ****     // handles input at terminal, echos it back to the terminal
 175:main.c        ****     // turn echo OFF, key emulation: only CR
 176:main.c        ****     // entered string is made available in 'line' and 'flag_KB_string' is set
 177:main.c        ****     
 178:main.c        ****     static uint8 usbStarted = FALSE;
 179:main.c        ****     static uint16 usbBufCount = 0;
 180:main.c        ****     uint8 c; 
 181:main.c        ****     
 182:main.c        **** 
 183:main.c        ****     if (!usbStarted)
 152              		.loc 1 183 0
 153 0002 1E4B     		ldr	r3, .L20
 154 0004 1B79     		ldrb	r3, [r3, #4]	@ zero_extendqisi2
 155 0006 4BB9     		cbnz	r3, .L12
 184:main.c        ****     {
 185:main.c        ****         if (USBUART_GetConfiguration())
 156              		.loc 1 185 0
 157 0008 FFF7FEFF 		bl	USBUART_GetConfiguration
ARM GAS  C:\Users\User\AppData\Local\Temp\cc1EfM4f.s 			page 7


 158              	.LVL11:
 159 000c 0028     		cmp	r0, #0
 160 000e 34D0     		beq	.L11
 186:main.c        ****         {
 187:main.c        ****             USBUART_CDC_Init();
 161              		.loc 1 187 0
 162 0010 FFF7FEFF 		bl	USBUART_CDC_Init
 163              	.LVL12:
 188:main.c        ****             usbStarted = TRUE;
 164              		.loc 1 188 0
 165 0014 0122     		movs	r2, #1
 166 0016 194B     		ldr	r3, .L20
 167 0018 1A71     		strb	r2, [r3, #4]
 168 001a 10BD     		pop	{r4, pc}
 169              	.L12:
 189:main.c        ****         }
 190:main.c        ****     }
 191:main.c        ****     else
 192:main.c        ****     {
 193:main.c        ****         if (USBUART_DataIsReady() != 0)
 170              		.loc 1 193 0
 171 001c FFF7FEFF 		bl	USBUART_DataIsReady
 172              	.LVL13:
 173 0020 58B3     		cbz	r0, .L11
 194:main.c        ****         {  
 195:main.c        ****             c = USBUART_GetChar();
 174              		.loc 1 195 0
 175 0022 FFF7FEFF 		bl	USBUART_GetChar
 176              	.LVL14:
 196:main.c        **** 
 197:main.c        ****             if ((c == 13) || (c == 10))
 177              		.loc 1 197 0
 178 0026 0D28     		cmp	r0, #13
 179 0028 01D0     		beq	.L14
 180              		.loc 1 197 0 is_stmt 0 discriminator 1
 181 002a 0A28     		cmp	r0, #10
 182 002c 0DD1     		bne	.L15
 183              	.L14:
 198:main.c        ****             {
 199:main.c        ****                 if (usbBufCount > 0)
 184              		.loc 1 199 0 is_stmt 1
 185 002e 134B     		ldr	r3, .L20
 186 0030 DB88     		ldrh	r3, [r3, #6]
 187 0032 13B3     		cbz	r3, .L11
 200:main.c        ****                 {
 201:main.c        ****                     entry[usbBufCount]= '\0';
 188              		.loc 1 201 0
 189 0034 1249     		ldr	r1, .L20+4
 190 0036 0024     		movs	r4, #0
 191 0038 CC54     		strb	r4, [r1, r3]
 202:main.c        ****                     strcpy(line,entry);
 192              		.loc 1 202 0
 193 003a 1248     		ldr	r0, .L20+8
 194              	.LVL15:
 195 003c FFF7FEFF 		bl	strcpy
 196              	.LVL16:
 203:main.c        ****                     usbBufCount = 0;
ARM GAS  C:\Users\User\AppData\Local\Temp\cc1EfM4f.s 			page 8


 197              		.loc 1 203 0
 198 0040 0E4B     		ldr	r3, .L20
 199 0042 DC80     		strh	r4, [r3, #6]	@ movhi
 204:main.c        ****                     flag_KB_string = 1;
 200              		.loc 1 204 0
 201 0044 0122     		movs	r2, #1
 202 0046 1A72     		strb	r2, [r3, #8]
 203 0048 10BD     		pop	{r4, pc}
 204              	.LVL17:
 205              	.L15:
 205:main.c        ****                 }
 206:main.c        ****             }
 207:main.c        ****             else 
 208:main.c        ****             {
 209:main.c        ****                 if (((c == CHAR_BACKSP) || (c == CHAR_DEL) ) && (usbBufCount > 0) )
 206              		.loc 1 209 0
 207 004a 0828     		cmp	r0, #8
 208 004c 01D0     		beq	.L16
 209              		.loc 1 209 0 is_stmt 0 discriminator 2
 210 004e 7F28     		cmp	r0, #127
 211 0050 06D1     		bne	.L17
 212              	.L16:
 213              		.loc 1 209 0 discriminator 3
 214 0052 0A4B     		ldr	r3, .L20
 215 0054 DB88     		ldrh	r3, [r3, #6]
 216 0056 1BB1     		cbz	r3, .L17
 210:main.c        ****                     usbBufCount--;
 217              		.loc 1 210 0 is_stmt 1
 218 0058 013B     		subs	r3, r3, #1
 219 005a 084A     		ldr	r2, .L20
 220 005c D380     		strh	r3, [r2, #6]	@ movhi
 221 005e 10BD     		pop	{r4, pc}
 222              	.L17:
 211:main.c        ****                 else
 212:main.c        ****                 {
 213:main.c        ****                     if (usbBufCount > (BUF_SIZE-2) ) // one less else strtok triggers a crash
 223              		.loc 1 213 0
 224 0060 064B     		ldr	r3, .L20
 225 0062 DB88     		ldrh	r3, [r3, #6]
 226 0064 3E2B     		cmp	r3, #62
 227 0066 03D9     		bls	.L18
 214:main.c        ****                     {
 215:main.c        ****                        USBUART_PutChar('!');        
 228              		.loc 1 215 0
 229 0068 2120     		movs	r0, #33
 230              	.LVL18:
 231 006a FFF7FEFF 		bl	USBUART_PutChar
 232              	.LVL19:
 233 006e 10BD     		pop	{r4, pc}
 234              	.LVL20:
 235              	.L18:
 216:main.c        ****                     }
 217:main.c        ****                     else
 218:main.c        ****                         entry[usbBufCount++] = c;  
 236              		.loc 1 218 0
 237 0070 591C     		adds	r1, r3, #1
 238 0072 024A     		ldr	r2, .L20
ARM GAS  C:\Users\User\AppData\Local\Temp\cc1EfM4f.s 			page 9


 239 0074 D180     		strh	r1, [r2, #6]	@ movhi
 240 0076 024A     		ldr	r2, .L20+4
 241 0078 D054     		strb	r0, [r2, r3]
 242              	.LVL21:
 243              	.L11:
 244 007a 10BD     		pop	{r4, pc}
 245              	.L21:
 246              		.align	2
 247              	.L20:
 248 007c 00000000 		.word	.LANCHOR1
 249 0080 00000000 		.word	entry
 250 0084 00000000 		.word	line
 251              		.cfi_endproc
 252              	.LFE69:
 253              		.size	handle_usb, .-handle_usb
 254              		.global	__aeabi_dcmpgt
 255              		.global	__aeabi_dcmplt
 256              		.global	__aeabi_ui2d
 257              		.global	__aeabi_dsub
 258              		.global	__aeabi_dmul
 259              		.global	__aeabi_ddiv
 260              		.global	__aeabi_d2uiz
 261              		.section	.text.M1_set_speed,"ax",%progbits
 262              		.align	2
 263              		.global	M1_set_speed
 264              		.thumb
 265              		.thumb_func
 266              		.type	M1_set_speed, %function
 267              	M1_set_speed:
 268              	.LFB70:
 219:main.c        ****                 }  
 220:main.c        ****             }
 221:main.c        ****         }
 222:main.c        ****     }    
 223:main.c        **** }
 224:main.c        **** //* ========================================
 225:main.c        **** // Motor speed control
 226:main.c        **** void M1_set_speed(double num){
 269              		.loc 1 226 0
 270              		.cfi_startproc
 271              		@ args = 0, pretend = 0, frame = 0
 272              		@ frame_needed = 0, uses_anonymous_args = 0
 273              	.LVL22:
 274 0000 F8B5     		push	{r3, r4, r5, r6, r7, lr}
 275              		.cfi_def_cfa_offset 24
 276              		.cfi_offset 3, -24
 277              		.cfi_offset 4, -20
 278              		.cfi_offset 5, -16
 279              		.cfi_offset 6, -12
 280              		.cfi_offset 7, -8
 281              		.cfi_offset 14, -4
 282 0002 0446     		mov	r4, r0
 283 0004 0D46     		mov	r5, r1
 227:main.c        ****     if (num > 100) 
 284              		.loc 1 227 0
 285 0006 0022     		movs	r2, #0
 286 0008 174B     		ldr	r3, .L27
ARM GAS  C:\Users\User\AppData\Local\Temp\cc1EfM4f.s 			page 10


 287 000a FFF7FEFF 		bl	__aeabi_dcmpgt
 288              	.LVL23:
 289 000e 38B9     		cbnz	r0, .L24
 228:main.c        ****     {
 229:main.c        ****         num = 100;
 230:main.c        ****     } else if (num < 0) 
 290              		.loc 1 230 0
 291 0010 0022     		movs	r2, #0
 292 0012 0023     		movs	r3, #0
 293 0014 2046     		mov	r0, r4
 294 0016 2946     		mov	r1, r5
 295 0018 FFF7FEFF 		bl	__aeabi_dcmplt
 296              	.LVL24:
 297 001c 28B1     		cbz	r0, .L23
 298 001e 02E0     		b	.L25
 299              	.L24:
 229:main.c        ****     } else if (num < 0) 
 300              		.loc 1 229 0
 301 0020 0024     		movs	r4, #0
 302 0022 114D     		ldr	r5, .L27
 303 0024 01E0     		b	.L23
 304              	.L25:
 231:main.c        ****     {
 232:main.c        ****         num = 0;
 305              		.loc 1 232 0
 306 0026 0024     		movs	r4, #0
 307 0028 0025     		movs	r5, #0
 308              	.L23:
 309              	.LVL25:
 233:main.c        ****     }
 234:main.c        ****     PWM_1_WriteCompare(((double)PWM_1_ReadPeriod()* (100 - num)) / 100);
 310              		.loc 1 234 0
 311 002a FFF7FEFF 		bl	PWM_1_ReadPeriod
 312              	.LVL26:
 313 002e FFF7FEFF 		bl	__aeabi_ui2d
 314              	.LVL27:
 315 0032 0646     		mov	r6, r0
 316 0034 0F46     		mov	r7, r1
 317 0036 2246     		mov	r2, r4
 318 0038 2B46     		mov	r3, r5
 319 003a 0020     		movs	r0, #0
 320 003c 0A49     		ldr	r1, .L27
 321 003e FFF7FEFF 		bl	__aeabi_dsub
 322              	.LVL28:
 323 0042 0246     		mov	r2, r0
 324 0044 0B46     		mov	r3, r1
 325 0046 3046     		mov	r0, r6
 326 0048 3946     		mov	r1, r7
 327 004a FFF7FEFF 		bl	__aeabi_dmul
 328              	.LVL29:
 329 004e 0022     		movs	r2, #0
 330 0050 054B     		ldr	r3, .L27
 331 0052 FFF7FEFF 		bl	__aeabi_ddiv
 332              	.LVL30:
 333 0056 FFF7FEFF 		bl	__aeabi_d2uiz
 334              	.LVL31:
 335 005a 80B2     		uxth	r0, r0
ARM GAS  C:\Users\User\AppData\Local\Temp\cc1EfM4f.s 			page 11


 336 005c FFF7FEFF 		bl	PWM_1_WriteCompare
 337              	.LVL32:
 235:main.c        ****     PWM_1_SaveConfig();
 338              		.loc 1 235 0
 339 0060 FFF7FEFF 		bl	PWM_1_SaveConfig
 340              	.LVL33:
 341 0064 F8BD     		pop	{r3, r4, r5, r6, r7, pc}
 342              	.LVL34:
 343              	.L28:
 344 0066 00BF     		.align	2
 345              	.L27:
 346 0068 00005940 		.word	1079574528
 347              		.cfi_endproc
 348              	.LFE70:
 349              		.size	M1_set_speed, .-M1_set_speed
 350              		.section	.text.M2_set_speed,"ax",%progbits
 351              		.align	2
 352              		.global	M2_set_speed
 353              		.thumb
 354              		.thumb_func
 355              		.type	M2_set_speed, %function
 356              	M2_set_speed:
 357              	.LFB71:
 236:main.c        ****     
 237:main.c        **** }
 238:main.c        **** void M2_set_speed(double num){
 358              		.loc 1 238 0
 359              		.cfi_startproc
 360              		@ args = 0, pretend = 0, frame = 0
 361              		@ frame_needed = 0, uses_anonymous_args = 0
 362              	.LVL35:
 363 0000 38B5     		push	{r3, r4, r5, lr}
 364              		.cfi_def_cfa_offset 16
 365              		.cfi_offset 3, -16
 366              		.cfi_offset 4, -12
 367              		.cfi_offset 5, -8
 368              		.cfi_offset 14, -4
 369 0002 0446     		mov	r4, r0
 370 0004 0D46     		mov	r5, r1
 239:main.c        ****     if (num > 100) 
 371              		.loc 1 239 0
 372 0006 0022     		movs	r2, #0
 373 0008 134B     		ldr	r3, .L34
 374 000a FFF7FEFF 		bl	__aeabi_dcmpgt
 375              	.LVL36:
 376 000e 38B9     		cbnz	r0, .L31
 240:main.c        ****     {
 241:main.c        ****         num = 100;
 242:main.c        ****     } else if (num < 0) 
 377              		.loc 1 242 0
 378 0010 0022     		movs	r2, #0
 379 0012 0023     		movs	r3, #0
 380 0014 2046     		mov	r0, r4
 381 0016 2946     		mov	r1, r5
 382 0018 FFF7FEFF 		bl	__aeabi_dcmplt
 383              	.LVL37:
 384 001c 28B1     		cbz	r0, .L30
ARM GAS  C:\Users\User\AppData\Local\Temp\cc1EfM4f.s 			page 12


 385 001e 02E0     		b	.L32
 386              	.L31:
 241:main.c        ****     } else if (num < 0) 
 387              		.loc 1 241 0
 388 0020 0024     		movs	r4, #0
 389 0022 0D4D     		ldr	r5, .L34
 390 0024 01E0     		b	.L30
 391              	.L32:
 243:main.c        ****     {
 244:main.c        ****         num = 0;
 392              		.loc 1 244 0
 393 0026 0024     		movs	r4, #0
 394 0028 0025     		movs	r5, #0
 395              	.L30:
 396              	.LVL38:
 245:main.c        ****     }
 246:main.c        ****     PWM_2_WriteCompare(((double)PWM_2_ReadPeriod()* num) / 100);
 397              		.loc 1 246 0
 398 002a FFF7FEFF 		bl	PWM_2_ReadPeriod
 399              	.LVL39:
 400 002e FFF7FEFF 		bl	__aeabi_ui2d
 401              	.LVL40:
 402 0032 0246     		mov	r2, r0
 403 0034 0B46     		mov	r3, r1
 404 0036 2046     		mov	r0, r4
 405 0038 2946     		mov	r1, r5
 406 003a FFF7FEFF 		bl	__aeabi_dmul
 407              	.LVL41:
 408 003e 0022     		movs	r2, #0
 409 0040 054B     		ldr	r3, .L34
 410 0042 FFF7FEFF 		bl	__aeabi_ddiv
 411              	.LVL42:
 412 0046 FFF7FEFF 		bl	__aeabi_d2uiz
 413              	.LVL43:
 414 004a 80B2     		uxth	r0, r0
 415 004c FFF7FEFF 		bl	PWM_2_WriteCompare
 416              	.LVL44:
 247:main.c        ****     PWM_2_SaveConfig();
 417              		.loc 1 247 0
 418 0050 FFF7FEFF 		bl	PWM_2_SaveConfig
 419              	.LVL45:
 420 0054 38BD     		pop	{r3, r4, r5, pc}
 421              	.LVL46:
 422              	.L35:
 423 0056 00BF     		.align	2
 424              	.L34:
 425 0058 00005940 		.word	1079574528
 426              		.cfi_endproc
 427              	.LFE71:
 428              		.size	M2_set_speed, .-M2_set_speed
 429              		.global	__aeabi_i2d
 430              		.section	.text.movement,"ax",%progbits
 431              		.align	2
 432              		.global	movement
 433              		.thumb
 434              		.thumb_func
 435              		.type	movement, %function
ARM GAS  C:\Users\User\AppData\Local\Temp\cc1EfM4f.s 			page 13


 436              	movement:
 437              	.LFB72:
 248:main.c        ****     
 249:main.c        **** }
 250:main.c        **** // Motion execution
 251:main.c        **** void movement(enum Motion_State motion) {
 438              		.loc 1 251 0
 439              		.cfi_startproc
 440              		@ args = 0, pretend = 0, frame = 0
 441              		@ frame_needed = 0, uses_anonymous_args = 0
 442              	.LVL47:
 443 0000 38B5     		push	{r3, r4, r5, lr}
 444              		.cfi_def_cfa_offset 16
 445              		.cfi_offset 3, -16
 446              		.cfi_offset 4, -12
 447              		.cfi_offset 5, -8
 448              		.cfi_offset 14, -4
 449 0002 0446     		mov	r4, r0
 252:main.c        ****     /*
 253:main.c        ****     if (motion == WAIT_STOP) {
 254:main.c        ****         Timer_1_Sleep();
 255:main.c        ****         Timer_1_Init();
 256:main.c        ****         
 257:main.c        ****         // Stop
 258:main.c        ****         M1_D1_Write(1);
 259:main.c        ****         M2_D1_Write(1);
 260:main.c        ****         
 261:main.c        ****         // enable timer2
 262:main.c        ****         Timer_2_Wakeup();
 263:main.c        ****         return;
 264:main.c        ****     }
 265:main.c        ****     */
 266:main.c        ****     Timer_1_Enable();
 450              		.loc 1 266 0
 451 0004 FFF7FEFF 		bl	Timer_1_Enable
 452              	.LVL48:
 267:main.c        ****     
 268:main.c        ****     if (motion == FORWARD) {
 453              		.loc 1 268 0
 454 0008 8CB9     		cbnz	r4, .L37
 269:main.c        ****         M1_set_speed(speed_M1);
 455              		.loc 1 269 0
 456 000a 234C     		ldr	r4, .L42
 457 000c 6068     		ldr	r0, [r4, #4]
 458 000e FFF7FEFF 		bl	__aeabi_i2d
 459              	.LVL49:
 460 0012 FFF7FEFF 		bl	M1_set_speed
 461              	.LVL50:
 270:main.c        ****         M2_set_speed(speed_M2);
 462              		.loc 1 270 0
 463 0016 A068     		ldr	r0, [r4, #8]
 464 0018 FFF7FEFF 		bl	__aeabi_i2d
 465              	.LVL51:
 466 001c FFF7FEFF 		bl	M2_set_speed
 467              	.LVL52:
 271:main.c        ****         
 272:main.c        ****         // start motor
ARM GAS  C:\Users\User\AppData\Local\Temp\cc1EfM4f.s 			page 14


 273:main.c        ****         M1_D1_Write(0);
 468              		.loc 1 273 0
 469 0020 0020     		movs	r0, #0
 470 0022 FFF7FEFF 		bl	M1_D1_Write
 471              	.LVL53:
 274:main.c        ****         M2_D1_Write(0);
 472              		.loc 1 274 0
 473 0026 0020     		movs	r0, #0
 474 0028 FFF7FEFF 		bl	M2_D1_Write
 475              	.LVL54:
 476 002c 38BD     		pop	{r3, r4, r5, pc}
 477              	.L37:
 275:main.c        ****     } else if (motion == LEFT) {
 478              		.loc 1 275 0
 479 002e 012C     		cmp	r4, #1
 480 0030 0ED1     		bne	.L39
 276:main.c        ****         M1_set_speed(65);
 481              		.loc 1 276 0
 482 0032 0020     		movs	r0, #0
 483 0034 1949     		ldr	r1, .L42+4
 484 0036 FFF7FEFF 		bl	M1_set_speed
 485              	.LVL55:
 277:main.c        ****         M2_set_speed(35);
 486              		.loc 1 277 0
 487 003a 0020     		movs	r0, #0
 488 003c 1849     		ldr	r1, .L42+8
 489 003e FFF7FEFF 		bl	M2_set_speed
 490              	.LVL56:
 278:main.c        ****         // start motor
 279:main.c        ****         M1_D1_Write(0);
 491              		.loc 1 279 0
 492 0042 0020     		movs	r0, #0
 493 0044 FFF7FEFF 		bl	M1_D1_Write
 494              	.LVL57:
 280:main.c        ****         M2_D1_Write(0);
 495              		.loc 1 280 0
 496 0048 0020     		movs	r0, #0
 497 004a FFF7FEFF 		bl	M2_D1_Write
 498              	.LVL58:
 499 004e 38BD     		pop	{r3, r4, r5, pc}
 500              	.L39:
 281:main.c        ****     } else if (motion == RIGHT) {
 501              		.loc 1 281 0
 502 0050 022C     		cmp	r4, #2
 503 0052 0ED1     		bne	.L40
 282:main.c        ****         M1_set_speed(30);
 504              		.loc 1 282 0
 505 0054 0020     		movs	r0, #0
 506 0056 1349     		ldr	r1, .L42+12
 507 0058 FFF7FEFF 		bl	M1_set_speed
 508              	.LVL59:
 283:main.c        ****         M2_set_speed(65);
 509              		.loc 1 283 0
 510 005c 0020     		movs	r0, #0
 511 005e 0F49     		ldr	r1, .L42+4
 512 0060 FFF7FEFF 		bl	M2_set_speed
 513              	.LVL60:
ARM GAS  C:\Users\User\AppData\Local\Temp\cc1EfM4f.s 			page 15


 284:main.c        ****         // start motor
 285:main.c        ****         M1_D1_Write(0);
 514              		.loc 1 285 0
 515 0064 0020     		movs	r0, #0
 516 0066 FFF7FEFF 		bl	M1_D1_Write
 517              	.LVL61:
 286:main.c        ****         M2_D1_Write(0);
 518              		.loc 1 286 0
 519 006a 0020     		movs	r0, #0
 520 006c FFF7FEFF 		bl	M2_D1_Write
 521              	.LVL62:
 522 0070 38BD     		pop	{r3, r4, r5, pc}
 523              	.L40:
 287:main.c        ****     } else if (motion == OTHER) {
 524              		.loc 1 287 0
 525 0072 062C     		cmp	r4, #6
 526 0074 0FD1     		bne	.L36
 288:main.c        ****         M1_set_speed(50);
 527              		.loc 1 288 0
 528 0076 0024     		movs	r4, #0
 529 0078 0B4D     		ldr	r5, .L42+16
 530 007a 2046     		mov	r0, r4
 531 007c 2946     		mov	r1, r5
 532 007e FFF7FEFF 		bl	M1_set_speed
 533              	.LVL63:
 289:main.c        ****         M2_set_speed(50);
 534              		.loc 1 289 0
 535 0082 2046     		mov	r0, r4
 536 0084 2946     		mov	r1, r5
 537 0086 FFF7FEFF 		bl	M2_set_speed
 538              	.LVL64:
 290:main.c        ****         // stop motor
 291:main.c        ****         M1_D1_Write(1);
 539              		.loc 1 291 0
 540 008a 0120     		movs	r0, #1
 541 008c FFF7FEFF 		bl	M1_D1_Write
 542              	.LVL65:
 292:main.c        ****         M2_D1_Write(1);
 543              		.loc 1 292 0
 544 0090 0120     		movs	r0, #1
 545 0092 FFF7FEFF 		bl	M2_D1_Write
 546              	.LVL66:
 547              	.L36:
 548 0096 38BD     		pop	{r3, r4, r5, pc}
 549              	.L43:
 550              		.align	2
 551              	.L42:
 552 0098 00000000 		.word	.LANCHOR0
 553 009c 00405040 		.word	1079001088
 554 00a0 00804140 		.word	1078034432
 555 00a4 00003E40 		.word	1077805056
 556 00a8 00004940 		.word	1078525952
 557              		.cfi_endproc
 558              	.LFE72:
 559              		.size	movement, .-movement
 560              		.section	.text.decide_motion,"ax",%progbits
 561              		.align	2
ARM GAS  C:\Users\User\AppData\Local\Temp\cc1EfM4f.s 			page 16


 562              		.global	decide_motion
 563              		.thumb
 564              		.thumb_func
 565              		.type	decide_motion, %function
 566              	decide_motion:
 567              	.LFB73:
 293:main.c        ****     }
 294:main.c        **** }
 295:main.c        **** // decide motion
 296:main.c        **** void decide_motion() {
 568              		.loc 1 296 0
 569              		.cfi_startproc
 570              		@ args = 0, pretend = 0, frame = 0
 571              		@ frame_needed = 0, uses_anonymous_args = 0
 572 0000 10B5     		push	{r4, lr}
 573              		.cfi_def_cfa_offset 8
 574              		.cfi_offset 4, -8
 575              		.cfi_offset 14, -4
 576              	.LVL67:
 297:main.c        ****     /*
 298:main.c        ****     // start detect the current position and decide the motion which need to take
 299:main.c        ****     if ((!Vo5_Read() || !Vo6_Read()) && Stop_flag) {
 300:main.c        ****         current_Motion = WAIT_STOP;
 301:main.c        ****         // not allow to stop again
 302:main.c        ****         Stop_flag = 0;
 303:main.c        ****     }
 304:main.c        ****     */
 305:main.c        ****     int state_assign = 1;
 306:main.c        ****     
 307:main.c        ****     if (!Vo5_Read() && !Vo2_Read() && Vo4_Read() && Vo6_Read()) {
 577              		.loc 1 307 0
 578 0002 FFF7FEFF 		bl	Vo5_Read
 579              	.LVL68:
 580 0006 68B9     		cbnz	r0, .L51
 581              		.loc 1 307 0 is_stmt 0 discriminator 1
 582 0008 FFF7FEFF 		bl	Vo2_Read
 583              	.LVL69:
 584 000c 60B9     		cbnz	r0, .L52
 585              		.loc 1 307 0 discriminator 2
 586 000e FFF7FEFF 		bl	Vo4_Read
 587              	.LVL70:
 588 0012 58B1     		cbz	r0, .L53
 589              		.loc 1 307 0 discriminator 3
 590 0014 FFF7FEFF 		bl	Vo6_Read
 591              	.LVL71:
 592 0018 50B1     		cbz	r0, .L54
 308:main.c        ****         next_Motion = LEFT;
 593              		.loc 1 308 0 is_stmt 1
 594 001a 0122     		movs	r2, #1
 595 001c 204B     		ldr	r3, .L56
 596 001e 1A70     		strb	r2, [r3]
 597              	.LVL72:
 309:main.c        ****         state_assign = 0;
 598              		.loc 1 309 0
 599 0020 0024     		movs	r4, #0
 600 0022 06E0     		b	.L45
 601              	.LVL73:
ARM GAS  C:\Users\User\AppData\Local\Temp\cc1EfM4f.s 			page 17


 602              	.L51:
 305:main.c        ****     
 603              		.loc 1 305 0
 604 0024 0124     		movs	r4, #1
 605 0026 04E0     		b	.L45
 606              	.L52:
 607 0028 0124     		movs	r4, #1
 608 002a 02E0     		b	.L45
 609              	.L53:
 610 002c 0124     		movs	r4, #1
 611 002e 00E0     		b	.L45
 612              	.L54:
 613 0030 0124     		movs	r4, #1
 614              	.LVL74:
 615              	.L45:
 310:main.c        ****     }
 311:main.c        ****     if (!Vo6_Read() && !Vo2_Read() && Vo4_Read() && Vo5_Read()) {
 616              		.loc 1 311 0
 617 0032 FFF7FEFF 		bl	Vo6_Read
 618              	.LVL75:
 619 0036 60B9     		cbnz	r0, .L46
 620              		.loc 1 311 0 is_stmt 0 discriminator 1
 621 0038 FFF7FEFF 		bl	Vo2_Read
 622              	.LVL76:
 623 003c 48B9     		cbnz	r0, .L46
 624              		.loc 1 311 0 discriminator 2
 625 003e FFF7FEFF 		bl	Vo4_Read
 626              	.LVL77:
 627 0042 30B1     		cbz	r0, .L46
 628              		.loc 1 311 0 discriminator 3
 629 0044 FFF7FEFF 		bl	Vo5_Read
 630              	.LVL78:
 631 0048 18B1     		cbz	r0, .L46
 312:main.c        ****         next_Motion = RIGHT;
 632              		.loc 1 312 0 is_stmt 1
 633 004a 0222     		movs	r2, #2
 634 004c 144B     		ldr	r3, .L56
 635 004e 1A70     		strb	r2, [r3]
 636              	.LVL79:
 313:main.c        ****         state_assign = 0;
 637              		.loc 1 313 0
 638 0050 0024     		movs	r4, #0
 639              	.LVL80:
 640              	.L46:
 314:main.c        ****     }
 315:main.c        ****     if ((!Vo1_Read() || !Vo3_Read()) && !Vo2_Read() && Vo5_Read() && Vo6_Read()) {
 641              		.loc 1 315 0
 642 0052 FFF7FEFF 		bl	Vo1_Read
 643              	.LVL81:
 644 0056 10B1     		cbz	r0, .L47
 645              		.loc 1 315 0 is_stmt 0 discriminator 2
 646 0058 FFF7FEFF 		bl	Vo3_Read
 647              	.LVL82:
 648 005c 58B9     		cbnz	r0, .L48
 649              	.L47:
 650              		.loc 1 315 0 discriminator 3
 651 005e FFF7FEFF 		bl	Vo2_Read
ARM GAS  C:\Users\User\AppData\Local\Temp\cc1EfM4f.s 			page 18


 652              	.LVL83:
 653 0062 40B9     		cbnz	r0, .L48
 654              		.loc 1 315 0 discriminator 4
 655 0064 FFF7FEFF 		bl	Vo5_Read
 656              	.LVL84:
 657 0068 28B1     		cbz	r0, .L48
 658              		.loc 1 315 0 discriminator 5
 659 006a FFF7FEFF 		bl	Vo6_Read
 660              	.LVL85:
 661 006e 10B1     		cbz	r0, .L48
 316:main.c        ****         next_Motion = FORWARD;
 662              		.loc 1 316 0 is_stmt 1
 663 0070 0024     		movs	r4, #0
 664              	.LVL86:
 665 0072 0B4B     		ldr	r3, .L56
 666 0074 1C70     		strb	r4, [r3]
 667              	.LVL87:
 668              	.L48:
 317:main.c        ****         state_assign = 0;
 318:main.c        ****     }
 319:main.c        ****     if (!(Vo4_Read()) && !Vo2_Read() && Vo5_Read() && Vo6_Read()) {
 669              		.loc 1 319 0
 670 0076 FFF7FEFF 		bl	Vo4_Read
 671              	.LVL88:
 672 007a 58B9     		cbnz	r0, .L49
 673              		.loc 1 319 0 is_stmt 0 discriminator 1
 674 007c FFF7FEFF 		bl	Vo2_Read
 675              	.LVL89:
 676 0080 40B9     		cbnz	r0, .L49
 677              		.loc 1 319 0 discriminator 2
 678 0082 FFF7FEFF 		bl	Vo5_Read
 679              	.LVL90:
 680 0086 28B1     		cbz	r0, .L49
 681              		.loc 1 319 0 discriminator 3
 682 0088 FFF7FEFF 		bl	Vo6_Read
 683              	.LVL91:
 684 008c 10B1     		cbz	r0, .L49
 320:main.c        ****         next_Motion = FORWARD;
 685              		.loc 1 320 0 is_stmt 1
 686 008e 0024     		movs	r4, #0
 687              	.LVL92:
 688 0090 034B     		ldr	r3, .L56
 689 0092 1C70     		strb	r4, [r3]
 690              	.LVL93:
 691              	.L49:
 321:main.c        ****         state_assign = 0;
 322:main.c        ****     }
 323:main.c        ****     if (state_assign == 1) {
 692              		.loc 1 323 0
 693 0094 14B1     		cbz	r4, .L44
 324:main.c        ****         next_Motion = OTHER;
 694              		.loc 1 324 0
 695 0096 0622     		movs	r2, #6
 696 0098 014B     		ldr	r3, .L56
 697 009a 1A70     		strb	r2, [r3]
 698              	.L44:
 699 009c 10BD     		pop	{r4, pc}
ARM GAS  C:\Users\User\AppData\Local\Temp\cc1EfM4f.s 			page 19


 700              	.LVL94:
 701              	.L57:
 702 009e 00BF     		.align	2
 703              	.L56:
 704 00a0 00000000 		.word	.LANCHOR0
 705              		.cfi_endproc
 706              	.LFE73:
 707              		.size	decide_motion, .-decide_motion
 708              		.section	.text.speed_balance,"ax",%progbits
 709              		.align	2
 710              		.global	speed_balance
 711              		.thumb
 712              		.thumb_func
 713              		.type	speed_balance, %function
 714              	speed_balance:
 715              	.LFB74:
 325:main.c        ****     }
 326:main.c        **** }
 327:main.c        **** /*
 328:main.c        **** void speed_balance() {
 329:main.c        ****     if (abs(c_M2) > abs(c_M1)) {
 330:main.c        ****         // M2 speed > M1 speed, M2 decelerate
 331:main.c        ****         speed_M2 = speed_M2 - 3;
 332:main.c        ****     } else
 333:main.c        ****     if (abs(c_M2) < abs(c_M1) - ENCODER_M2_DE) {
 334:main.c        ****         // M2 speed < M1 speed, M2 accelerate
 335:main.c        ****         speed_M2++;
 336:main.c        ****     }
 337:main.c        **** }
 338:main.c        **** */
 339:main.c        **** void speed_balance() {
 716              		.loc 1 339 0
 717              		.cfi_startproc
 718              		@ args = 0, pretend = 0, frame = 0
 719              		@ frame_needed = 0, uses_anonymous_args = 0
 720              		@ link register save eliminated.
 340:main.c        ****     if (c_M2 - abs(c_M1) > 0) {
 721              		.loc 1 340 0
 722 0000 0E4B     		ldr	r3, .L61
 723 0002 1A68     		ldr	r2, [r3]
 724 0004 0E4B     		ldr	r3, .L61+4
 725 0006 1B68     		ldr	r3, [r3]
 726 0008 002B     		cmp	r3, #0
 727 000a B8BF     		it	lt
 728 000c 5B42     		rsblt	r3, r3, #0
 729 000e D31A     		subs	r3, r2, r3
 730 0010 002B     		cmp	r3, #0
 731 0012 04DD     		ble	.L59
 341:main.c        ****         // M2 speed > M1 speed, M2 decelerate
 342:main.c        ****         speed_M1 = speed_M1 + 4;
 732              		.loc 1 342 0
 733 0014 0B4A     		ldr	r2, .L61+8
 734 0016 5368     		ldr	r3, [r2, #4]
 735 0018 0433     		adds	r3, r3, #4
 736 001a 5360     		str	r3, [r2, #4]
 737 001c 7047     		bx	lr
 738              	.L59:
ARM GAS  C:\Users\User\AppData\Local\Temp\cc1EfM4f.s 			page 20


 343:main.c        ****     } else
 344:main.c        ****     if (c_M2 - abs(c_M1) < 0) {
 739              		.loc 1 344 0
 740 001e 074B     		ldr	r3, .L61
 741 0020 1A68     		ldr	r2, [r3]
 742 0022 074B     		ldr	r3, .L61+4
 743 0024 1B68     		ldr	r3, [r3]
 744 0026 002B     		cmp	r3, #0
 745 0028 B8BF     		it	lt
 746 002a 5B42     		rsblt	r3, r3, #0
 747 002c D31A     		subs	r3, r2, r3
 748 002e 002B     		cmp	r3, #0
 749 0030 03DA     		bge	.L58
 345:main.c        ****         // M2 speed < M1 speed, M2 accelerate
 346:main.c        ****         speed_M1--;
 750              		.loc 1 346 0
 751 0032 044A     		ldr	r2, .L61+8
 752 0034 5368     		ldr	r3, [r2, #4]
 753 0036 013B     		subs	r3, r3, #1
 754 0038 5360     		str	r3, [r2, #4]
 755              	.L58:
 756 003a 7047     		bx	lr
 757              	.L62:
 758              		.align	2
 759              	.L61:
 760 003c 00000000 		.word	c_M2
 761 0040 00000000 		.word	c_M1
 762 0044 00000000 		.word	.LANCHOR0
 763              		.cfi_endproc
 764              	.LFE74:
 765              		.size	speed_balance, .-speed_balance
 766              		.section	.text.main,"ax",%progbits
 767              		.align	2
 768              		.global	main
 769              		.thumb
 770              		.thumb_func
 771              		.type	main, %function
 772              	main:
 773              	.LFB66:
  93:main.c        **** // ----- INITIALIZATIONS ----------
 774              		.loc 1 93 0
 775              		.cfi_startproc
 776              		@ Volatile: function does not return.
 777              		@ args = 0, pretend = 0, frame = 0
 778              		@ frame_needed = 0, uses_anonymous_args = 0
 779 0000 08B5     		push	{r3, lr}
 780              		.cfi_def_cfa_offset 8
 781              		.cfi_offset 3, -8
 782              		.cfi_offset 14, -4
  95:main.c        **** // ------USB SETUP ----------------    
 783              		.loc 1 95 0
 784              		.syntax unified
 785              	@ 95 "main.c" 1
 786 0002 62B6     		CPSIE   i
 787              	@ 0 "" 2
  98:main.c        ****     #endif
 788              		.loc 1 98 0
ARM GAS  C:\Users\User\AppData\Local\Temp\cc1EfM4f.s 			page 21


 789              		.thumb
 790              		.syntax unified
 791 0004 0121     		movs	r1, #1
 792 0006 0020     		movs	r0, #0
 793 0008 FFF7FEFF 		bl	USBUART_Start
 794              	.LVL95:
 101:main.c        **** // ------Motor SETUP----------------------
 795              		.loc 1 101 0
 796 000c 0020     		movs	r0, #0
 797 000e FFF7FEFF 		bl	RF_BT_SELECT_Write
 798              	.LVL96:
 103:main.c        ****     PWM_2_Start();
 799              		.loc 1 103 0
 800 0012 FFF7FEFF 		bl	PWM_1_Start
 801              	.LVL97:
 104:main.c        ****     M1_D1_Write(1);
 802              		.loc 1 104 0
 803 0016 FFF7FEFF 		bl	PWM_2_Start
 804              	.LVL98:
 105:main.c        ****     M1_D1_Write(1);
 805              		.loc 1 105 0
 806 001a 0120     		movs	r0, #1
 807 001c FFF7FEFF 		bl	M1_D1_Write
 808              	.LVL99:
 106:main.c        **** // ------TIMER SETUP----------------------
 809              		.loc 1 106 0
 810 0020 0120     		movs	r0, #1
 811 0022 FFF7FEFF 		bl	M1_D1_Write
 812              	.LVL100:
 108:main.c        ****     isr_US_StartEx(isr_UpdateState);
 813              		.loc 1 108 0
 814 0026 FFF7FEFF 		bl	Timer_1_Start
 815              	.LVL101:
 109:main.c        ****     
 816              		.loc 1 109 0
 817 002a 1D48     		ldr	r0, .L68
 818 002c FFF7FEFF 		bl	isr_US_StartEx
 819              	.LVL102:
 111:main.c        ****     Timer_2_Sleep();
 820              		.loc 1 111 0
 821 0030 FFF7FEFF 		bl	Timer_2_Start
 822              	.LVL103:
 112:main.c        ****     Timer_2_Init();
 823              		.loc 1 112 0
 824 0034 FFF7FEFF 		bl	Timer_2_Sleep
 825              	.LVL104:
 113:main.c        ****     isr_T2_StartEx(isr_StopInterval);
 826              		.loc 1 113 0
 827 0038 FFF7FEFF 		bl	Timer_2_Init
 828              	.LVL105:
 114:main.c        **** // ------DECODER SETUP----------------------
 829              		.loc 1 114 0
 830 003c 1948     		ldr	r0, .L68+4
 831 003e FFF7FEFF 		bl	isr_T2_StartEx
 832              	.LVL106:
 116:main.c        ****     QuadDec_M2_Start();
 833              		.loc 1 116 0
ARM GAS  C:\Users\User\AppData\Local\Temp\cc1EfM4f.s 			page 22


 834 0042 FFF7FEFF 		bl	QuadDec_M1_Start
 835              	.LVL107:
 117:main.c        ****     QuadDec_M1_SetCounter(0);
 836              		.loc 1 117 0
 837 0046 FFF7FEFF 		bl	QuadDec_M2_Start
 838              	.LVL108:
 118:main.c        ****     QuadDec_M2_SetCounter(0);
 839              		.loc 1 118 0
 840 004a 0020     		movs	r0, #0
 841 004c FFF7FEFF 		bl	QuadDec_M1_SetCounter
 842              	.LVL109:
 119:main.c        ****     
 843              		.loc 1 119 0
 844 0050 0020     		movs	r0, #0
 845 0052 FFF7FEFF 		bl	QuadDec_M2_SetCounter
 846              	.LVL110:
 847              	.L64:
 123:main.c        ****         movement(current_Motion);
 848              		.loc 1 123 0
 849 0056 FFF7FEFF 		bl	decide_motion
 850              	.LVL111:
 124:main.c        ****         
 851              		.loc 1 124 0
 852 005a 134B     		ldr	r3, .L68+8
 853 005c 5878     		ldrb	r0, [r3, #1]	@ zero_extendqisi2
 854 005e FFF7FEFF 		bl	movement
 855              	.LVL112:
 127:main.c        ****             c_M1 = QuadDec_M1_GetCounter();
 856              		.loc 1 127 0
 857 0062 124B     		ldr	r3, .L68+12
 858 0064 DB68     		ldr	r3, [r3, #12]
 859 0066 002B     		cmp	r3, #0
 860 0068 F5D0     		beq	.L64
 128:main.c        ****             c_M2 = QuadDec_M2_GetCounter();
 861              		.loc 1 128 0
 862 006a FFF7FEFF 		bl	QuadDec_M1_GetCounter
 863              	.LVL113:
 864 006e 104B     		ldr	r3, .L68+16
 865 0070 1860     		str	r0, [r3]
 129:main.c        ****             
 866              		.loc 1 129 0
 867 0072 FFF7FEFF 		bl	QuadDec_M2_GetCounter
 868              	.LVL114:
 869 0076 0F4B     		ldr	r3, .L68+20
 870 0078 1860     		str	r0, [r3]
 131:main.c        ****                 speed_balance();
 871              		.loc 1 131 0
 872 007a 0C4B     		ldr	r3, .L68+12
 873 007c 1B69     		ldr	r3, [r3, #16]
 874 007e 23B1     		cbz	r3, .L65
 132:main.c        ****                 speed_flag = 0;
 875              		.loc 1 132 0
 876 0080 FFF7FEFF 		bl	speed_balance
 877              	.LVL115:
 133:main.c        ****             }
 878              		.loc 1 133 0
 879 0084 0022     		movs	r2, #0
ARM GAS  C:\Users\User\AppData\Local\Temp\cc1EfM4f.s 			page 23


 880 0086 094B     		ldr	r3, .L68+12
 881 0088 1A61     		str	r2, [r3, #16]
 882              	.L65:
 136:main.c        ****             QuadDec_M2_SetCounter(0);
 883              		.loc 1 136 0
 884 008a 0020     		movs	r0, #0
 885 008c FFF7FEFF 		bl	QuadDec_M1_SetCounter
 886              	.LVL116:
 137:main.c        ****             
 887              		.loc 1 137 0
 888 0090 0020     		movs	r0, #0
 889 0092 FFF7FEFF 		bl	QuadDec_M2_SetCounter
 890              	.LVL117:
 148:main.c        ****         }
 891              		.loc 1 148 0
 892 0096 0022     		movs	r2, #0
 893 0098 044B     		ldr	r3, .L68+12
 894 009a DA60     		str	r2, [r3, #12]
 895 009c DBE7     		b	.L64
 896              	.L69:
 897 009e 00BF     		.align	2
 898              	.L68:
 899 00a0 00000000 		.word	isr_UpdateState
 900 00a4 00000000 		.word	isr_StopInterval
 901 00a8 00000000 		.word	.LANCHOR0
 902 00ac 00000000 		.word	.LANCHOR1
 903 00b0 00000000 		.word	c_M1
 904 00b4 00000000 		.word	c_M2
 905              		.cfi_endproc
 906              	.LFE66:
 907              		.size	main, .-main
 908              		.global	__aeabi_dadd
 909              		.global	__aeabi_d2iz
 910              		.section	.text.bias_check,"ax",%progbits
 911              		.align	2
 912              		.global	bias_check
 913              		.thumb
 914              		.thumb_func
 915              		.type	bias_check, %function
 916              	bias_check:
 917              	.LFB75:
 347:main.c        ****     }
 348:main.c        **** }
 349:main.c        **** 
 350:main.c        **** void bias_check() {
 918              		.loc 1 350 0
 919              		.cfi_startproc
 920              		@ args = 0, pretend = 0, frame = 0
 921              		@ frame_needed = 0, uses_anonymous_args = 0
 922 0000 10B5     		push	{r4, lr}
 923              		.cfi_def_cfa_offset 8
 924              		.cfi_offset 4, -8
 925              		.cfi_offset 14, -4
 351:main.c        ****     if (Vo1_Read() && !Vo3_Read() && Vo5_Read() && Vo6_Read()) {
 926              		.loc 1 351 0
 927 0002 FFF7FEFF 		bl	Vo1_Read
 928              	.LVL118:
ARM GAS  C:\Users\User\AppData\Local\Temp\cc1EfM4f.s 			page 24


 929 0006 A8B1     		cbz	r0, .L71
 930              		.loc 1 351 0 is_stmt 0 discriminator 1
 931 0008 FFF7FEFF 		bl	Vo3_Read
 932              	.LVL119:
 933 000c 90B9     		cbnz	r0, .L71
 934              		.loc 1 351 0 discriminator 2
 935 000e FFF7FEFF 		bl	Vo5_Read
 936              	.LVL120:
 937 0012 78B1     		cbz	r0, .L71
 938              		.loc 1 351 0 discriminator 3
 939 0014 FFF7FEFF 		bl	Vo6_Read
 940              	.LVL121:
 941 0018 60B1     		cbz	r0, .L71
 352:main.c        ****         speed_M1 = speed_M1 + 0.01;
 942              		.loc 1 352 0 is_stmt 1
 943 001a 194C     		ldr	r4, .L74+8
 944 001c 6068     		ldr	r0, [r4, #4]
 945 001e FFF7FEFF 		bl	__aeabi_i2d
 946              	.LVL122:
 947 0022 15A3     		adr	r3, .L74
 948 0024 D3E90023 		ldrd	r2, [r3]
 949 0028 FFF7FEFF 		bl	__aeabi_dadd
 950              	.LVL123:
 951 002c FFF7FEFF 		bl	__aeabi_d2iz
 952              	.LVL124:
 953 0030 6060     		str	r0, [r4, #4]
 353:main.c        ****         //usbPutString(" Bias-set ");
 354:main.c        ****         return;
 954              		.loc 1 354 0
 955 0032 10BD     		pop	{r4, pc}
 956              	.L71:
 355:main.c        ****     }
 356:main.c        ****     
 357:main.c        ****     if (!Vo1_Read() && Vo3_Read() && Vo5_Read() && Vo6_Read() && (speed_M1 > 51 && speed_M2 >51)) {
 957              		.loc 1 357 0
 958 0034 FFF7FEFF 		bl	Vo1_Read
 959              	.LVL125:
 960 0038 E0B9     		cbnz	r0, .L70
 961              		.loc 1 357 0 is_stmt 0 discriminator 1
 962 003a FFF7FEFF 		bl	Vo3_Read
 963              	.LVL126:
 964 003e C8B1     		cbz	r0, .L70
 965              		.loc 1 357 0 discriminator 2
 966 0040 FFF7FEFF 		bl	Vo5_Read
 967              	.LVL127:
 968 0044 B0B1     		cbz	r0, .L70
 969              		.loc 1 357 0 discriminator 3
 970 0046 FFF7FEFF 		bl	Vo6_Read
 971              	.LVL128:
 972 004a 98B1     		cbz	r0, .L70
 973              		.loc 1 357 0 discriminator 4
 974 004c 0C4B     		ldr	r3, .L74+8
 975 004e 5B68     		ldr	r3, [r3, #4]
 976 0050 332B     		cmp	r3, #51
 977 0052 0FDD     		ble	.L70
 978              		.loc 1 357 0 discriminator 5
 979 0054 0A4B     		ldr	r3, .L74+8
ARM GAS  C:\Users\User\AppData\Local\Temp\cc1EfM4f.s 			page 25


 980 0056 9B68     		ldr	r3, [r3, #8]
 981 0058 332B     		cmp	r3, #51
 982 005a 0BDD     		ble	.L70
 358:main.c        ****         speed_M1 = speed_M1 - 0.01;
 983              		.loc 1 358 0 is_stmt 1
 984 005c 084C     		ldr	r4, .L74+8
 985 005e 6068     		ldr	r0, [r4, #4]
 986 0060 FFF7FEFF 		bl	__aeabi_i2d
 987              	.LVL129:
 988 0064 04A3     		adr	r3, .L74
 989 0066 D3E90023 		ldrd	r2, [r3]
 990 006a FFF7FEFF 		bl	__aeabi_dsub
 991              	.LVL130:
 992 006e FFF7FEFF 		bl	__aeabi_d2iz
 993              	.LVL131:
 994 0072 6060     		str	r0, [r4, #4]
 995              	.L70:
 996 0074 10BD     		pop	{r4, pc}
 997              	.L75:
 998 0076 00BF     		.align	3
 999              	.L74:
 1000 0078 7B14AE47 		.word	1202590843
 1001 007c E17A843F 		.word	1065646817
 1002 0080 00000000 		.word	.LANCHOR0
 1003              		.cfi_endproc
 1004              	.LFE75:
 1005              		.size	bias_check, .-bias_check
 1006              		.section	.text.isr_UpdateState,"ax",%progbits
 1007              		.align	2
 1008              		.global	isr_UpdateState
 1009              		.thumb
 1010              		.thumb_func
 1011              		.type	isr_UpdateState, %function
 1012              	isr_UpdateState:
 1013              	.LFB64:
  57:main.c        ****     current_Motion = next_Motion;
 1014              		.loc 1 57 0
 1015              		.cfi_startproc
 1016              		@ args = 0, pretend = 0, frame = 0
 1017              		@ frame_needed = 0, uses_anonymous_args = 0
 1018 0000 08B5     		push	{r3, lr}
 1019              		.cfi_def_cfa_offset 8
 1020              		.cfi_offset 3, -8
 1021              		.cfi_offset 14, -4
  58:main.c        ****     count_waitstop++;
 1022              		.loc 1 58 0
 1023 0002 1D4A     		ldr	r2, .L83
 1024 0004 1378     		ldrb	r3, [r2]	@ zero_extendqisi2
 1025 0006 DBB2     		uxtb	r3, r3
 1026 0008 5370     		strb	r3, [r2, #1]
  59:main.c        ****     count_encoder++;
 1027              		.loc 1 59 0
 1028 000a 1C4B     		ldr	r3, .L83+4
 1029 000c 1A68     		ldr	r2, [r3]
 1030 000e 0132     		adds	r2, r2, #1
 1031 0010 1A60     		str	r2, [r3]
  60:main.c        ****     // wait stop signal timer
ARM GAS  C:\Users\User\AppData\Local\Temp\cc1EfM4f.s 			page 26


 1032              		.loc 1 60 0
 1033 0012 5A69     		ldr	r2, [r3, #20]
 1034 0014 0132     		adds	r2, r2, #1
 1035 0016 5A61     		str	r2, [r3, #20]
  62:main.c        ****         Stop_flag = 1;
 1036              		.loc 1 62 0
 1037 0018 1B68     		ldr	r3, [r3]
 1038 001a C82B     		cmp	r3, #200
 1039 001c 05D1     		bne	.L77
  63:main.c        ****         count_waitstop = 0;
 1040              		.loc 1 63 0
 1041 001e 0122     		movs	r2, #1
 1042 0020 154B     		ldr	r3, .L83
 1043 0022 DA60     		str	r2, [r3, #12]
  64:main.c        ****     }
 1044              		.loc 1 64 0
 1045 0024 0022     		movs	r2, #0
 1046 0026 154B     		ldr	r3, .L83+4
 1047 0028 1A60     		str	r2, [r3]
 1048              	.L77:
  67:main.c        ****         decoder_flag = 1;
 1049              		.loc 1 67 0
 1050 002a 144B     		ldr	r3, .L83+4
 1051 002c 5B69     		ldr	r3, [r3, #20]
 1052 002e 052B     		cmp	r3, #5
 1053 0030 0CD1     		bne	.L78
  68:main.c        ****         count_encoder = 0;
 1054              		.loc 1 68 0
 1055 0032 124B     		ldr	r3, .L83+4
 1056 0034 0122     		movs	r2, #1
 1057 0036 DA60     		str	r2, [r3, #12]
  69:main.c        ****         if (count_forward >= 5) {
 1058              		.loc 1 69 0
 1059 0038 0022     		movs	r2, #0
 1060 003a 5A61     		str	r2, [r3, #20]
  70:main.c        ****             speed_flag = 1;
 1061              		.loc 1 70 0
 1062 003c 9B69     		ldr	r3, [r3, #24]
 1063 003e 042B     		cmp	r3, #4
 1064 0040 04DD     		ble	.L78
  71:main.c        ****             count_forward = 0;
 1065              		.loc 1 71 0
 1066 0042 0E4B     		ldr	r3, .L83+4
 1067 0044 0122     		movs	r2, #1
 1068 0046 1A61     		str	r2, [r3, #16]
  72:main.c        ****         }
 1069              		.loc 1 72 0
 1070 0048 0022     		movs	r2, #0
 1071 004a 9A61     		str	r2, [r3, #24]
 1072              	.L78:
  76:main.c        ****         count_forward++;
 1073              		.loc 1 76 0
 1074 004c 0A4B     		ldr	r3, .L83
 1075 004e 5B78     		ldrb	r3, [r3, #1]	@ zero_extendqisi2
 1076 0050 13F0FF0F 		tst	r3, #255
 1077 0054 04D1     		bne	.L79
  77:main.c        ****     } else {
ARM GAS  C:\Users\User\AppData\Local\Temp\cc1EfM4f.s 			page 27


 1078              		.loc 1 77 0
 1079 0056 094A     		ldr	r2, .L83+4
 1080 0058 9369     		ldr	r3, [r2, #24]
 1081 005a 0133     		adds	r3, r3, #1
 1082 005c 9361     		str	r3, [r2, #24]
 1083 005e 02E0     		b	.L80
 1084              	.L79:
  79:main.c        ****     }
 1085              		.loc 1 79 0
 1086 0060 0022     		movs	r2, #0
 1087 0062 064B     		ldr	r3, .L83+4
 1088 0064 9A61     		str	r2, [r3, #24]
 1089              	.L80:
  81:main.c        ****         bias_check();
 1090              		.loc 1 81 0
 1091 0066 044B     		ldr	r3, .L83
 1092 0068 5B78     		ldrb	r3, [r3, #1]	@ zero_extendqisi2
 1093 006a 13F0FF0F 		tst	r3, #255
 1094 006e 01D1     		bne	.L76
  82:main.c        ****     }
 1095              		.loc 1 82 0
 1096 0070 FFF7FEFF 		bl	bias_check
 1097              	.LVL132:
 1098              	.L76:
 1099 0074 08BD     		pop	{r3, pc}
 1100              	.L84:
 1101 0076 00BF     		.align	2
 1102              	.L83:
 1103 0078 00000000 		.word	.LANCHOR0
 1104 007c 00000000 		.word	.LANCHOR1
 1105              		.cfi_endproc
 1106              	.LFE64:
 1107              		.size	isr_UpdateState, .-isr_UpdateState
 1108              		.section	.text.enumToString,"ax",%progbits
 1109              		.align	2
 1110              		.global	enumToString
 1111              		.thumb
 1112              		.thumb_func
 1113              		.type	enumToString, %function
 1114              	enumToString:
 1115              	.LFB76:
 359:main.c        ****         //usbPutString(" Bias-set ");
 360:main.c        ****         return;
 361:main.c        ****     }  
 362:main.c        ****     //usbPutString(" \tBias-not-set\t ");
 363:main.c        **** }
 364:main.c        **** 
 365:main.c        **** char* enumToString(enum Motion_State state) {
 1116              		.loc 1 365 0
 1117              		.cfi_startproc
 1118              		@ args = 0, pretend = 0, frame = 0
 1119              		@ frame_needed = 0, uses_anonymous_args = 0
 1120              		@ link register save eliminated.
 1121              	.LVL133:
 366:main.c        ****     if (state == FORWARD) {
 1122              		.loc 1 366 0
 1123 0000 58B1     		cbz	r0, .L87
ARM GAS  C:\Users\User\AppData\Local\Temp\cc1EfM4f.s 			page 28


 367:main.c        ****         return "FORWARD";
 368:main.c        ****     } else if (state == LEFT) {
 1124              		.loc 1 368 0
 1125 0002 0128     		cmp	r0, #1
 1126 0004 0BD0     		beq	.L88
 369:main.c        ****         return "LEFT";
 370:main.c        ****     } else if (state == RIGHT) {
 1127              		.loc 1 370 0
 1128 0006 0228     		cmp	r0, #2
 1129 0008 0BD0     		beq	.L89
 371:main.c        ****         return "RIGHT";
 372:main.c        ****     } else if (state == BACKWARD) {
 1130              		.loc 1 372 0
 1131 000a 0328     		cmp	r0, #3
 1132 000c 0BD0     		beq	.L90
 373:main.c        ****         return "BACKWARD";
 374:main.c        ****     } else if (state == WAIT_STOP) {
 1133              		.loc 1 374 0
 1134 000e 0428     		cmp	r0, #4
 1135 0010 0BD0     		beq	.L91
 375:main.c        ****         return "WAIT_STOP";
 376:main.c        ****     } else if (state == END) {
 1136              		.loc 1 376 0
 1137 0012 0528     		cmp	r0, #5
 1138 0014 0BD1     		bne	.L92
 377:main.c        ****         return "END";
 1139              		.loc 1 377 0
 1140 0016 0748     		ldr	r0, .L93
 1141              	.LVL134:
 1142 0018 7047     		bx	lr
 1143              	.LVL135:
 1144              	.L87:
 367:main.c        ****     } else if (state == LEFT) {
 1145              		.loc 1 367 0
 1146 001a 0748     		ldr	r0, .L93+4
 1147              	.LVL136:
 1148 001c 7047     		bx	lr
 1149              	.LVL137:
 1150              	.L88:
 369:main.c        ****     } else if (state == RIGHT) {
 1151              		.loc 1 369 0
 1152 001e 0748     		ldr	r0, .L93+8
 1153              	.LVL138:
 1154 0020 7047     		bx	lr
 1155              	.LVL139:
 1156              	.L89:
 371:main.c        ****     } else if (state == BACKWARD) {
 1157              		.loc 1 371 0
 1158 0022 0748     		ldr	r0, .L93+12
 1159              	.LVL140:
 1160 0024 7047     		bx	lr
 1161              	.LVL141:
 1162              	.L90:
 373:main.c        ****     } else if (state == WAIT_STOP) {
 1163              		.loc 1 373 0
 1164 0026 0748     		ldr	r0, .L93+16
 1165              	.LVL142:
ARM GAS  C:\Users\User\AppData\Local\Temp\cc1EfM4f.s 			page 29


 1166 0028 7047     		bx	lr
 1167              	.LVL143:
 1168              	.L91:
 375:main.c        ****     } else if (state == END) {
 1169              		.loc 1 375 0
 1170 002a 0748     		ldr	r0, .L93+20
 1171              	.LVL144:
 1172 002c 7047     		bx	lr
 1173              	.LVL145:
 1174              	.L92:
 378:main.c        ****     } else {
 379:main.c        ****         return "OTHER";
 1175              		.loc 1 379 0
 1176 002e 0748     		ldr	r0, .L93+24
 1177              	.LVL146:
 380:main.c        ****     }
 381:main.c        **** }
 1178              		.loc 1 381 0
 1179 0030 7047     		bx	lr
 1180              	.L94:
 1181 0032 00BF     		.align	2
 1182              	.L93:
 1183 0034 30000000 		.word	.LC5
 1184 0038 00000000 		.word	.LC0
 1185 003c 08000000 		.word	.LC1
 1186 0040 10000000 		.word	.LC2
 1187 0044 18000000 		.word	.LC3
 1188 0048 24000000 		.word	.LC4
 1189 004c 34000000 		.word	.LC6
 1190              		.cfi_endproc
 1191              	.LFE76:
 1192              		.size	enumToString, .-enumToString
 1193              		.global	speed_M2
 1194              		.global	speed_M1
 1195              		.comm	c_M2,4,4
 1196              		.comm	c_M1,4,4
 1197              		.global	count_forward
 1198              		.global	count_encoder
 1199              		.global	count_waitstop
 1200              		.global	speed_flag
 1201              		.global	decoder_flag
 1202              		.global	Stop_flag
 1203              		.global	next_Motion
 1204              		.global	current_Motion
 1205              		.comm	system_state,32,4
 1206              		.comm	usbBuffer,64,4
 1207              		.comm	entry,64,4
 1208              		.comm	line,64,4
 1209              		.global	displaystring
 1210              		.global	message_encoder
 1211              		.global	flag_rf_transmission_active
 1212              		.global	dataready_flag
 1213              		.global	flag_KB_string
 1214              		.global	flag_packet
 1215              		.global	flag_rx
 1216              		.global	flag_ts_display
 1217              		.global	flag_ts_speed
ARM GAS  C:\Users\User\AppData\Local\Temp\cc1EfM4f.s 			page 30


 1218              		.global	flag_ts_update
 1219              		.global	flag_ts_enc
 1220              		.global	ts_display
 1221              		.global	ts_speed
 1222              		.global	ts_update
 1223              		.global	ts_enc
 1224              		.global	ts
 1225              		.data
 1226              		.align	2
 1227              		.set	.LANCHOR0,. + 0
 1228              		.type	next_Motion, %object
 1229              		.size	next_Motion, 1
 1230              	next_Motion:
 1231 0000 06       		.byte	6
 1232              		.type	current_Motion, %object
 1233              		.size	current_Motion, 1
 1234              	current_Motion:
 1235 0001 06       		.byte	6
 1236 0002 0000     		.space	2
 1237              		.type	speed_M1, %object
 1238              		.size	speed_M1, 4
 1239              	speed_M1:
 1240 0004 41000000 		.word	65
 1241              		.type	speed_M2, %object
 1242              		.size	speed_M2, 4
 1243              	speed_M2:
 1244 0008 41000000 		.word	65
 1245              		.type	Stop_flag, %object
 1246              		.size	Stop_flag, 4
 1247              	Stop_flag:
 1248 000c 01000000 		.word	1
 1249              		.type	displaystring, %object
 1250              		.size	displaystring, 64
 1251              	displaystring:
 1252 0010 43533330 		.ascii	"CS301 2016\012\000"
 1252      31203230 
 1252      31360A00 
 1253 001c 00000000 		.space	52
 1253      00000000 
 1253      00000000 
 1253      00000000 
 1253      00000000 
 1254              		.type	message_encoder, %object
 1255              		.size	message_encoder, 64
 1256              	message_encoder:
 1257 0050 0D0A5468 		.ascii	"\015\012The speed is (rps): \000"
 1257      65207370 
 1257      65656420 
 1257      69732028 
 1257      72707329 
 1258 0067 00000000 		.space	41
 1258      00000000 
 1258      00000000 
 1258      00000000 
 1258      00000000 
 1259              		.type	flag_rf_transmission_active, %object
 1260              		.size	flag_rf_transmission_active, 1
ARM GAS  C:\Users\User\AppData\Local\Temp\cc1EfM4f.s 			page 31


 1261              	flag_rf_transmission_active:
 1262 0090 0A       		.byte	10
 1263              		.section	.rodata.str1.4,"aMS",%progbits,1
 1264              		.align	2
 1265              	.LC0:
 1266 0000 464F5257 		.ascii	"FORWARD\000"
 1266      41524400 
 1267              	.LC1:
 1268 0008 4C454654 		.ascii	"LEFT\000"
 1268      00
 1269 000d 000000   		.space	3
 1270              	.LC2:
 1271 0010 52494748 		.ascii	"RIGHT\000"
 1271      5400
 1272 0016 0000     		.space	2
 1273              	.LC3:
 1274 0018 4241434B 		.ascii	"BACKWARD\000"
 1274      57415244 
 1274      00
 1275 0021 000000   		.space	3
 1276              	.LC4:
 1277 0024 57414954 		.ascii	"WAIT_STOP\000"
 1277      5F53544F 
 1277      5000
 1278 002e 0000     		.space	2
 1279              	.LC5:
 1280 0030 454E4400 		.ascii	"END\000"
 1281              	.LC6:
 1282 0034 4F544845 		.ascii	"OTHER\000"
 1282      5200
 1283              		.bss
 1284              		.align	2
 1285              		.set	.LANCHOR1,. + 0
 1286              		.type	count_waitstop, %object
 1287              		.size	count_waitstop, 4
 1288              	count_waitstop:
 1289 0000 00000000 		.space	4
 1290              		.type	usbStarted.8528, %object
 1291              		.size	usbStarted.8528, 1
 1292              	usbStarted.8528:
 1293 0004 00       		.space	1
 1294 0005 00       		.space	1
 1295              		.type	usbBufCount.8529, %object
 1296              		.size	usbBufCount.8529, 2
 1297              	usbBufCount.8529:
 1298 0006 0000     		.space	2
 1299              		.type	flag_KB_string, %object
 1300              		.size	flag_KB_string, 1
 1301              	flag_KB_string:
 1302 0008 00       		.space	1
 1303 0009 000000   		.space	3
 1304              		.type	decoder_flag, %object
 1305              		.size	decoder_flag, 4
 1306              	decoder_flag:
 1307 000c 00000000 		.space	4
 1308              		.type	speed_flag, %object
 1309              		.size	speed_flag, 4
ARM GAS  C:\Users\User\AppData\Local\Temp\cc1EfM4f.s 			page 32


 1310              	speed_flag:
 1311 0010 00000000 		.space	4
 1312              		.type	count_encoder, %object
 1313              		.size	count_encoder, 4
 1314              	count_encoder:
 1315 0014 00000000 		.space	4
 1316              		.type	count_forward, %object
 1317              		.size	count_forward, 4
 1318              	count_forward:
 1319 0018 00000000 		.space	4
 1320              		.type	dataready_flag, %object
 1321              		.size	dataready_flag, 1
 1322              	dataready_flag:
 1323 001c 00       		.space	1
 1324              		.type	flag_packet, %object
 1325              		.size	flag_packet, 1
 1326              	flag_packet:
 1327 001d 00       		.space	1
 1328              		.type	flag_rx, %object
 1329              		.size	flag_rx, 1
 1330              	flag_rx:
 1331 001e 00       		.space	1
 1332              		.type	flag_ts_display, %object
 1333              		.size	flag_ts_display, 1
 1334              	flag_ts_display:
 1335 001f 00       		.space	1
 1336              		.type	flag_ts_speed, %object
 1337              		.size	flag_ts_speed, 1
 1338              	flag_ts_speed:
 1339 0020 00       		.space	1
 1340              		.type	flag_ts_update, %object
 1341              		.size	flag_ts_update, 1
 1342              	flag_ts_update:
 1343 0021 00       		.space	1
 1344              		.type	flag_ts_enc, %object
 1345              		.size	flag_ts_enc, 1
 1346              	flag_ts_enc:
 1347 0022 00       		.space	1
 1348 0023 00       		.space	1
 1349              		.type	ts_display, %object
 1350              		.size	ts_display, 2
 1351              	ts_display:
 1352 0024 0000     		.space	2
 1353              		.type	ts_speed, %object
 1354              		.size	ts_speed, 2
 1355              	ts_speed:
 1356 0026 0000     		.space	2
 1357              		.type	ts_update, %object
 1358              		.size	ts_update, 2
 1359              	ts_update:
 1360 0028 0000     		.space	2
 1361              		.type	ts_enc, %object
 1362              		.size	ts_enc, 2
 1363              	ts_enc:
 1364 002a 0000     		.space	2
 1365              		.type	ts, %object
 1366              		.size	ts, 1
ARM GAS  C:\Users\User\AppData\Local\Temp\cc1EfM4f.s 			page 33


 1367              	ts:
 1368 002c 00       		.space	1
 1369              		.text
 1370              	.Letext0:
 1371              		.file 2 "d:\\psoc creator\\4.4\\psoc creator\\import\\gnu\\arm\\5.4.1\\arm-none-eabi\\include\\mac
 1372              		.file 3 "d:\\psoc creator\\4.4\\psoc creator\\import\\gnu\\arm\\5.4.1\\arm-none-eabi\\include\\sys
 1373              		.file 4 "Generated_Source\\PSoC5/cytypes.h"
 1374              		.file 5 "vars.h"
 1375              		.file 6 "Generated_Source\\PSoC5/core_cm3.h"
 1376              		.file 7 "Generated_Source\\PSoC5/Timer_2.h"
 1377              		.file 8 "Generated_Source\\PSoC5/USBUART_cdc.h"
 1378              		.file 9 "d:\\psoc creator\\4.4\\psoc creator\\import\\gnu\\arm\\5.4.1\\arm-none-eabi\\include\\str
 1379              		.file 10 "Generated_Source\\PSoC5/USBUART.h"
 1380              		.file 11 "Generated_Source\\PSoC5/PWM_1.h"
 1381              		.file 12 "Generated_Source\\PSoC5/PWM_2.h"
 1382              		.file 13 "Generated_Source\\PSoC5/Timer_1.h"
 1383              		.file 14 "Generated_Source\\PSoC5/M1_D1.h"
 1384              		.file 15 "Generated_Source\\PSoC5/M2_D1.h"
 1385              		.file 16 "Generated_Source\\PSoC5/Vo5.h"
 1386              		.file 17 "Generated_Source\\PSoC5/Vo2.h"
 1387              		.file 18 "Generated_Source\\PSoC5/Vo4.h"
 1388              		.file 19 "Generated_Source\\PSoC5/Vo6.h"
 1389              		.file 20 "Generated_Source\\PSoC5/Vo1.h"
 1390              		.file 21 "Generated_Source\\PSoC5/Vo3.h"
 1391              		.file 22 "Generated_Source\\PSoC5/RF_BT_SELECT.h"
 1392              		.file 23 "Generated_Source\\PSoC5/isr_US.h"
 1393              		.file 24 "Generated_Source\\PSoC5/isr_T2.h"
 1394              		.file 25 "Generated_Source\\PSoC5/QuadDec_M1.h"
 1395              		.file 26 "Generated_Source\\PSoC5/QuadDec_M2.h"