ARM GAS  C:\Users\18285\AppData\Local\Temp\ccCU0tpx.s 			page 1


   1              		.syntax unified
   2              		.cpu cortex-m3
   3              		.fpu softvfp
   4              		.eabi_attribute 20, 1
   5              		.eabi_attribute 21, 1
   6              		.eabi_attribute 23, 3
   7              		.eabi_attribute 24, 1
   8              		.eabi_attribute 25, 1
   9              		.eabi_attribute 26, 1
  10              		.eabi_attribute 30, 1
  11              		.eabi_attribute 34, 1
  12              		.eabi_attribute 18, 4
  13              		.thumb
  14              		.syntax unified
  15              		.file	"self_functions.c"
  16              		.text
  17              	.Ltext0:
  18              		.cfi_sections	.debug_frame
  19              		.section	.text.usbPutString,"ax",%progbits
  20              		.align	2
  21              		.global	usbPutString
  22              		.thumb
  23              		.thumb_func
  24              		.type	usbPutString, %function
  25              	usbPutString:
  26              	.LFB63:
  27              		.file 1 "self_functions.c"
   1:self_functions.c **** /* ========================================
   2:self_functions.c ****  *
   3:self_functions.c ****  * Copyright YOUR COMPANY, THE YEAR
   4:self_functions.c ****  * All Rights Reserved
   5:self_functions.c ****  * UNPUBLISHED, LICENSED SOFTWARE.
   6:self_functions.c ****  *
   7:self_functions.c ****  * CONFIDENTIAL AND PROPRIETARY INFORMATION
   8:self_functions.c ****  * WHICH IS THE PROPERTY OF your company.
   9:self_functions.c ****  *
  10:self_functions.c ****  * ========================================
  11:self_functions.c **** */
  12:self_functions.c **** 
  13:self_functions.c **** //* ======== INCLUDE =======================
  14:self_functions.c **** //* ========================================
  15:self_functions.c **** #include "defines.h"
  16:self_functions.c **** #include "vars.h"
  17:self_functions.c **** #include "self_functions.h"
  18:self_functions.c **** 
  19:self_functions.c **** //* ======== DECLARATION ===================
  20:self_functions.c **** //* ========================================
  21:self_functions.c **** void usbPutString(char *s);
  22:self_functions.c **** void usbPutChar(char c);
  23:self_functions.c **** void handle_usb();
  24:self_functions.c **** 
  25:self_functions.c **** 
  26:self_functions.c **** //* ======== FUNCTION ======================
  27:self_functions.c **** //* ========================================
  28:self_functions.c **** void usbPutString(char *s) {
  28              		.loc 1 28 0
  29              		.cfi_startproc
ARM GAS  C:\Users\18285\AppData\Local\Temp\ccCU0tpx.s 			page 2


  30              		@ args = 0, pretend = 0, frame = 0
  31              		@ frame_needed = 0, uses_anonymous_args = 0
  32              	.LVL0:
  33 0000 10B5     		push	{r4, lr}
  34              		.cfi_def_cfa_offset 8
  35              		.cfi_offset 4, -8
  36              		.cfi_offset 14, -4
  37 0002 0446     		mov	r4, r0
  38              	.LVL1:
  39              	.L2:
  29:self_functions.c **** // !! Assumes that *s is a string with allocated space >=64 chars     
  30:self_functions.c **** //  Since USB implementation retricts data packets to 64 chars, this function truncates the
  31:self_functions.c **** //  length to 62 char (63rd char is a '!')
  32:self_functions.c **** 
  33:self_functions.c **** #ifdef USE_USB     
  34:self_functions.c ****     while (USBUART_CDCIsReady() == 0);
  40              		.loc 1 34 0 discriminator 1
  41 0004 FFF7FEFF 		bl	USBUART_CDCIsReady
  42              	.LVL2:
  43 0008 0028     		cmp	r0, #0
  44 000a FBD0     		beq	.L2
  35:self_functions.c ****     s[63]='\0';
  45              		.loc 1 35 0
  46 000c 0023     		movs	r3, #0
  47 000e 84F83F30 		strb	r3, [r4, #63]
  36:self_functions.c ****     s[62]='!';
  48              		.loc 1 36 0
  49 0012 2123     		movs	r3, #33
  50 0014 84F83E30 		strb	r3, [r4, #62]
  37:self_functions.c ****     USBUART_PutData((uint8*)s,strlen(s));
  51              		.loc 1 37 0
  52 0018 2046     		mov	r0, r4
  53 001a FFF7FEFF 		bl	strlen
  54              	.LVL3:
  55 001e 81B2     		uxth	r1, r0
  56 0020 2046     		mov	r0, r4
  57 0022 FFF7FEFF 		bl	USBUART_PutData
  58              	.LVL4:
  59 0026 10BD     		pop	{r4, pc}
  60              		.cfi_endproc
  61              	.LFE63:
  62              		.size	usbPutString, .-usbPutString
  63              		.section	.text.usbPutChar,"ax",%progbits
  64              		.align	2
  65              		.global	usbPutChar
  66              		.thumb
  67              		.thumb_func
  68              		.type	usbPutChar, %function
  69              	usbPutChar:
  70              	.LFB64:
  38:self_functions.c **** #endif
  39:self_functions.c **** }
  40:self_functions.c **** //* ========================================
  41:self_functions.c **** void usbPutChar(char c) {
  71              		.loc 1 41 0
  72              		.cfi_startproc
  73              		@ args = 0, pretend = 0, frame = 0
ARM GAS  C:\Users\18285\AppData\Local\Temp\ccCU0tpx.s 			page 3


  74              		@ frame_needed = 0, uses_anonymous_args = 0
  75              	.LVL5:
  76 0000 10B5     		push	{r4, lr}
  77              		.cfi_def_cfa_offset 8
  78              		.cfi_offset 4, -8
  79              		.cfi_offset 14, -4
  80 0002 0446     		mov	r4, r0
  81              	.LVL6:
  82              	.L5:
  42:self_functions.c **** #ifdef USE_USB     
  43:self_functions.c ****     while (USBUART_CDCIsReady() == 0);
  83              		.loc 1 43 0 discriminator 1
  84 0004 FFF7FEFF 		bl	USBUART_CDCIsReady
  85              	.LVL7:
  86 0008 0028     		cmp	r0, #0
  87 000a FBD0     		beq	.L5
  44:self_functions.c ****     USBUART_PutChar(c);
  88              		.loc 1 44 0
  89 000c 2046     		mov	r0, r4
  90 000e FFF7FEFF 		bl	USBUART_PutChar
  91              	.LVL8:
  92 0012 10BD     		pop	{r4, pc}
  93              		.cfi_endproc
  94              	.LFE64:
  95              		.size	usbPutChar, .-usbPutChar
  96              		.section	.text.handle_usb,"ax",%progbits
  97              		.align	2
  98              		.global	handle_usb
  99              		.thumb
 100              		.thumb_func
 101              		.type	handle_usb, %function
 102              	handle_usb:
 103              	.LFB65:
  45:self_functions.c **** #endif    
  46:self_functions.c **** }
  47:self_functions.c **** //* ========================================
  48:self_functions.c **** void handle_usb() {
 104              		.loc 1 48 0
 105              		.cfi_startproc
 106              		@ args = 0, pretend = 0, frame = 0
 107              		@ frame_needed = 0, uses_anonymous_args = 0
 108 0000 10B5     		push	{r4, lr}
 109              		.cfi_def_cfa_offset 8
 110              		.cfi_offset 4, -8
 111              		.cfi_offset 14, -4
  49:self_functions.c ****     // handles input at terminal, echos it back to the terminal
  50:self_functions.c ****     // turn echo OFF, key emulation: only CR
  51:self_functions.c ****     // entered string is made available in 'line' and 'flag_KB_string' is set
  52:self_functions.c ****     
  53:self_functions.c ****     static uint8 usbStarted = FALSE;
  54:self_functions.c ****     static uint16 usbBufCount = 0;
  55:self_functions.c ****     uint8 c; 
  56:self_functions.c ****     
  57:self_functions.c **** 
  58:self_functions.c ****     if (!usbStarted)
 112              		.loc 1 58 0
 113 0002 1E4B     		ldr	r3, .L16
ARM GAS  C:\Users\18285\AppData\Local\Temp\ccCU0tpx.s 			page 4


 114 0004 1B78     		ldrb	r3, [r3]	@ zero_extendqisi2
 115 0006 4BB9     		cbnz	r3, .L8
  59:self_functions.c ****     {
  60:self_functions.c ****         if (USBUART_GetConfiguration())
 116              		.loc 1 60 0
 117 0008 FFF7FEFF 		bl	USBUART_GetConfiguration
 118              	.LVL9:
 119 000c 0028     		cmp	r0, #0
 120 000e 34D0     		beq	.L7
  61:self_functions.c ****         {
  62:self_functions.c ****             USBUART_CDC_Init();
 121              		.loc 1 62 0
 122 0010 FFF7FEFF 		bl	USBUART_CDC_Init
 123              	.LVL10:
  63:self_functions.c ****             usbStarted = TRUE;
 124              		.loc 1 63 0
 125 0014 0122     		movs	r2, #1
 126 0016 194B     		ldr	r3, .L16
 127 0018 1A70     		strb	r2, [r3]
 128 001a 10BD     		pop	{r4, pc}
 129              	.L8:
  64:self_functions.c ****         }
  65:self_functions.c ****     }
  66:self_functions.c ****     else
  67:self_functions.c ****     {
  68:self_functions.c ****         if (USBUART_DataIsReady() != 0)
 130              		.loc 1 68 0
 131 001c FFF7FEFF 		bl	USBUART_DataIsReady
 132              	.LVL11:
 133 0020 58B3     		cbz	r0, .L7
  69:self_functions.c ****         {  
  70:self_functions.c ****             c = USBUART_GetChar();
 134              		.loc 1 70 0
 135 0022 FFF7FEFF 		bl	USBUART_GetChar
 136              	.LVL12:
  71:self_functions.c **** 
  72:self_functions.c ****             if ((c == 13) || (c == 10))
 137              		.loc 1 72 0
 138 0026 0D28     		cmp	r0, #13
 139 0028 01D0     		beq	.L10
 140              		.loc 1 72 0 is_stmt 0 discriminator 1
 141 002a 0A28     		cmp	r0, #10
 142 002c 0DD1     		bne	.L11
 143              	.L10:
  73:self_functions.c ****             {
  74:self_functions.c ****                 if (usbBufCount > 0)
 144              		.loc 1 74 0 is_stmt 1
 145 002e 134B     		ldr	r3, .L16
 146 0030 5B88     		ldrh	r3, [r3, #2]
 147 0032 13B3     		cbz	r3, .L7
  75:self_functions.c ****                 {
  76:self_functions.c ****                     entry[usbBufCount]= '\0';
 148              		.loc 1 76 0
 149 0034 1249     		ldr	r1, .L16+4
 150 0036 0024     		movs	r4, #0
 151 0038 CC54     		strb	r4, [r1, r3]
  77:self_functions.c ****                     strcpy(line,entry);
ARM GAS  C:\Users\18285\AppData\Local\Temp\ccCU0tpx.s 			page 5


 152              		.loc 1 77 0
 153 003a 1248     		ldr	r0, .L16+8
 154              	.LVL13:
 155 003c FFF7FEFF 		bl	strcpy
 156              	.LVL14:
  78:self_functions.c ****                     usbBufCount = 0;
 157              		.loc 1 78 0
 158 0040 0E4B     		ldr	r3, .L16
 159 0042 5C80     		strh	r4, [r3, #2]	@ movhi
  79:self_functions.c ****                     flag_KB_string = 1;
 160              		.loc 1 79 0
 161 0044 0122     		movs	r2, #1
 162 0046 1A71     		strb	r2, [r3, #4]
 163 0048 10BD     		pop	{r4, pc}
 164              	.LVL15:
 165              	.L11:
  80:self_functions.c ****                 }
  81:self_functions.c ****             }
  82:self_functions.c ****             else 
  83:self_functions.c ****             {
  84:self_functions.c ****                 if (((c == CHAR_BACKSP) || (c == CHAR_DEL) ) && (usbBufCount > 0) )
 166              		.loc 1 84 0
 167 004a 0828     		cmp	r0, #8
 168 004c 01D0     		beq	.L12
 169              		.loc 1 84 0 is_stmt 0 discriminator 2
 170 004e 7F28     		cmp	r0, #127
 171 0050 06D1     		bne	.L13
 172              	.L12:
 173              		.loc 1 84 0 discriminator 3
 174 0052 0A4B     		ldr	r3, .L16
 175 0054 5B88     		ldrh	r3, [r3, #2]
 176 0056 1BB1     		cbz	r3, .L13
  85:self_functions.c ****                     usbBufCount--;
 177              		.loc 1 85 0 is_stmt 1
 178 0058 013B     		subs	r3, r3, #1
 179 005a 084A     		ldr	r2, .L16
 180 005c 5380     		strh	r3, [r2, #2]	@ movhi
 181 005e 10BD     		pop	{r4, pc}
 182              	.L13:
  86:self_functions.c ****                 else
  87:self_functions.c ****                 {
  88:self_functions.c ****                     if (usbBufCount > (BUF_SIZE-2) ) // one less else strtok triggers a crash
 183              		.loc 1 88 0
 184 0060 064B     		ldr	r3, .L16
 185 0062 5B88     		ldrh	r3, [r3, #2]
 186 0064 3E2B     		cmp	r3, #62
 187 0066 03D9     		bls	.L14
  89:self_functions.c ****                     {
  90:self_functions.c ****                        USBUART_PutChar('!');        
 188              		.loc 1 90 0
 189 0068 2120     		movs	r0, #33
 190              	.LVL16:
 191 006a FFF7FEFF 		bl	USBUART_PutChar
 192              	.LVL17:
 193 006e 10BD     		pop	{r4, pc}
 194              	.LVL18:
 195              	.L14:
ARM GAS  C:\Users\18285\AppData\Local\Temp\ccCU0tpx.s 			page 6


  91:self_functions.c ****                     }
  92:self_functions.c ****                     else
  93:self_functions.c ****                         entry[usbBufCount++] = c;  
 196              		.loc 1 93 0
 197 0070 591C     		adds	r1, r3, #1
 198 0072 024A     		ldr	r2, .L16
 199 0074 5180     		strh	r1, [r2, #2]	@ movhi
 200 0076 024A     		ldr	r2, .L16+4
 201 0078 D054     		strb	r0, [r2, r3]
 202              	.LVL19:
 203              	.L7:
 204 007a 10BD     		pop	{r4, pc}
 205              	.L17:
 206              		.align	2
 207              	.L16:
 208 007c 00000000 		.word	.LANCHOR0
 209 0080 00000000 		.word	entry
 210 0084 00000000 		.word	line
 211              		.cfi_endproc
 212              	.LFE65:
 213              		.size	handle_usb, .-handle_usb
 214              		.section	.text.enumToString,"ax",%progbits
 215              		.align	2
 216              		.global	enumToString
 217              		.thumb
 218              		.thumb_func
 219              		.type	enumToString, %function
 220              	enumToString:
 221              	.LFB66:
  94:self_functions.c ****                 }  
  95:self_functions.c ****             }
  96:self_functions.c ****         }
  97:self_functions.c ****     }    
  98:self_functions.c **** }
  99:self_functions.c **** 
 100:self_functions.c **** 
 101:self_functions.c **** //* ======== SELF FUNCTION==================
 102:self_functions.c **** //* ========================================
 103:self_functions.c **** char* enumToString(enum Motion_State state) {
 222              		.loc 1 103 0
 223              		.cfi_startproc
 224              		@ args = 0, pretend = 0, frame = 0
 225              		@ frame_needed = 0, uses_anonymous_args = 0
 226              		@ link register save eliminated.
 227              	.LVL20:
 104:self_functions.c ****     if (state == FORWARD) {
 228              		.loc 1 104 0
 229 0000 58B1     		cbz	r0, .L20
 105:self_functions.c ****         return "FORWARD";
 106:self_functions.c ****     } else if (state == LEFT) {
 230              		.loc 1 106 0
 231 0002 0128     		cmp	r0, #1
 232 0004 0BD0     		beq	.L21
 107:self_functions.c ****         return "LEFT";
 108:self_functions.c ****     } else if (state == RIGHT) {
 233              		.loc 1 108 0
 234 0006 0228     		cmp	r0, #2
ARM GAS  C:\Users\18285\AppData\Local\Temp\ccCU0tpx.s 			page 7


 235 0008 0BD0     		beq	.L22
 109:self_functions.c ****         return "RIGHT";
 110:self_functions.c ****     } else if (state == BACKWARD) {
 236              		.loc 1 110 0
 237 000a 0328     		cmp	r0, #3
 238 000c 0BD0     		beq	.L23
 111:self_functions.c ****         return "BACKWARD";
 112:self_functions.c ****     } else if (state == WAIT_STOP) {
 239              		.loc 1 112 0
 240 000e 0428     		cmp	r0, #4
 241 0010 0BD0     		beq	.L24
 113:self_functions.c ****         return "WAIT_STOP";
 114:self_functions.c ****     } else if (state == END) {
 242              		.loc 1 114 0
 243 0012 0528     		cmp	r0, #5
 244 0014 0BD1     		bne	.L25
 115:self_functions.c ****         return "END";
 245              		.loc 1 115 0
 246 0016 0748     		ldr	r0, .L26
 247              	.LVL21:
 248 0018 7047     		bx	lr
 249              	.LVL22:
 250              	.L20:
 105:self_functions.c ****     } else if (state == LEFT) {
 251              		.loc 1 105 0
 252 001a 0748     		ldr	r0, .L26+4
 253              	.LVL23:
 254 001c 7047     		bx	lr
 255              	.LVL24:
 256              	.L21:
 107:self_functions.c ****     } else if (state == RIGHT) {
 257              		.loc 1 107 0
 258 001e 0748     		ldr	r0, .L26+8
 259              	.LVL25:
 260 0020 7047     		bx	lr
 261              	.LVL26:
 262              	.L22:
 109:self_functions.c ****     } else if (state == BACKWARD) {
 263              		.loc 1 109 0
 264 0022 0748     		ldr	r0, .L26+12
 265              	.LVL27:
 266 0024 7047     		bx	lr
 267              	.LVL28:
 268              	.L23:
 111:self_functions.c ****     } else if (state == WAIT_STOP) {
 269              		.loc 1 111 0
 270 0026 0748     		ldr	r0, .L26+16
 271              	.LVL29:
 272 0028 7047     		bx	lr
 273              	.LVL30:
 274              	.L24:
 113:self_functions.c ****     } else if (state == END) {
 275              		.loc 1 113 0
 276 002a 0748     		ldr	r0, .L26+20
 277              	.LVL31:
 278 002c 7047     		bx	lr
 279              	.LVL32:
ARM GAS  C:\Users\18285\AppData\Local\Temp\ccCU0tpx.s 			page 8


 280              	.L25:
 116:self_functions.c ****     } else {
 117:self_functions.c ****         return "OTHER";
 281              		.loc 1 117 0
 282 002e 0748     		ldr	r0, .L26+24
 283              	.LVL33:
 118:self_functions.c ****     }
 119:self_functions.c **** }
 284              		.loc 1 119 0
 285 0030 7047     		bx	lr
 286              	.L27:
 287 0032 00BF     		.align	2
 288              	.L26:
 289 0034 30000000 		.word	.LC5
 290 0038 00000000 		.word	.LC0
 291 003c 08000000 		.word	.LC1
 292 0040 10000000 		.word	.LC2
 293 0044 18000000 		.word	.LC3
 294 0048 24000000 		.word	.LC4
 295 004c 34000000 		.word	.LC6
 296              		.cfi_endproc
 297              	.LFE66:
 298              		.size	enumToString, .-enumToString
 299              		.section	.text.init,"ax",%progbits
 300              		.align	2
 301              		.global	init
 302              		.thumb
 303              		.thumb_func
 304              		.type	init, %function
 305              	init:
 306              	.LFB67:
 120:self_functions.c **** void init() {
 307              		.loc 1 120 0
 308              		.cfi_startproc
 309              		@ args = 0, pretend = 0, frame = 0
 310              		@ frame_needed = 0, uses_anonymous_args = 0
 311 0000 08B5     		push	{r3, lr}
 312              		.cfi_def_cfa_offset 8
 313              		.cfi_offset 3, -8
 314              		.cfi_offset 14, -4
 121:self_functions.c **** // ------Motor SETUP----------------------
 122:self_functions.c ****     PWM_1_Start();
 315              		.loc 1 122 0
 316 0002 FFF7FEFF 		bl	PWM_1_Start
 317              	.LVL34:
 123:self_functions.c ****     PWM_2_Start();
 318              		.loc 1 123 0
 319 0006 FFF7FEFF 		bl	PWM_2_Start
 320              	.LVL35:
 124:self_functions.c ****     M1_D1_Write(1);
 321              		.loc 1 124 0
 322 000a 0120     		movs	r0, #1
 323 000c FFF7FEFF 		bl	M1_D1_Write
 324              	.LVL36:
 125:self_functions.c ****     M1_D1_Write(1);
 325              		.loc 1 125 0
 326 0010 0120     		movs	r0, #1
ARM GAS  C:\Users\18285\AppData\Local\Temp\ccCU0tpx.s 			page 9


 327 0012 FFF7FEFF 		bl	M1_D1_Write
 328              	.LVL37:
 126:self_functions.c **** 
 127:self_functions.c **** // ------DECODER SETUP----------------------
 128:self_functions.c ****     QuadDec_M1_Start();
 329              		.loc 1 128 0
 330 0016 FFF7FEFF 		bl	QuadDec_M1_Start
 331              	.LVL38:
 129:self_functions.c ****     QuadDec_M2_Start();
 332              		.loc 1 129 0
 333 001a FFF7FEFF 		bl	QuadDec_M2_Start
 334              	.LVL39:
 130:self_functions.c ****     QuadDec_M1_SetCounter(0);
 335              		.loc 1 130 0
 336 001e 0020     		movs	r0, #0
 337 0020 FFF7FEFF 		bl	QuadDec_M1_SetCounter
 338              	.LVL40:
 131:self_functions.c ****     QuadDec_M2_SetCounter(0);
 339              		.loc 1 131 0
 340 0024 0020     		movs	r0, #0
 341 0026 FFF7FEFF 		bl	QuadDec_M2_SetCounter
 342              	.LVL41:
 343 002a 08BD     		pop	{r3, pc}
 344              		.cfi_endproc
 345              	.LFE67:
 346              		.size	init, .-init
 347              		.global	__aeabi_dcmpgt
 348              		.global	__aeabi_dcmplt
 349              		.global	__aeabi_dmul
 350              		.global	__aeabi_dadd
 351              		.global	__aeabi_dsub
 352              		.global	__aeabi_ui2d
 353              		.global	__aeabi_ddiv
 354              		.global	__aeabi_d2uiz
 355              		.section	.text.M1_set_speed,"ax",%progbits
 356              		.align	2
 357              		.global	M1_set_speed
 358              		.thumb
 359              		.thumb_func
 360              		.type	M1_set_speed, %function
 361              	M1_set_speed:
 362              	.LFB68:
 132:self_functions.c **** 
 133:self_functions.c **** }
 134:self_functions.c **** //* ======== MOTOR CONTROL =================
 135:self_functions.c **** void M1_set_speed(int direction, double num){
 363              		.loc 1 135 0
 364              		.cfi_startproc
 365              		@ args = 0, pretend = 0, frame = 0
 366              		@ frame_needed = 0, uses_anonymous_args = 0
 367              	.LVL42:
 368 0000 F8B5     		push	{r3, r4, r5, r6, r7, lr}
 369              		.cfi_def_cfa_offset 24
 370              		.cfi_offset 3, -24
 371              		.cfi_offset 4, -20
 372              		.cfi_offset 5, -16
 373              		.cfi_offset 6, -12
ARM GAS  C:\Users\18285\AppData\Local\Temp\ccCU0tpx.s 			page 10


 374              		.cfi_offset 7, -8
 375              		.cfi_offset 14, -4
 376 0002 0646     		mov	r6, r0
 377 0004 1446     		mov	r4, r2
 378 0006 1D46     		mov	r5, r3
 136:self_functions.c ****     if (num > 100) 
 379              		.loc 1 136 0
 380 0008 0022     		movs	r2, #0
 381              	.LVL43:
 382 000a 264B     		ldr	r3, .L37
 383 000c 2046     		mov	r0, r4
 384              	.LVL44:
 385 000e 2946     		mov	r1, r5
 386 0010 FFF7FEFF 		bl	__aeabi_dcmpgt
 387              	.LVL45:
 388 0014 38B9     		cbnz	r0, .L34
 137:self_functions.c ****     {
 138:self_functions.c ****         num = 100.0;
 139:self_functions.c ****     } else if (num < 0) 
 389              		.loc 1 139 0
 390 0016 0022     		movs	r2, #0
 391 0018 0023     		movs	r3, #0
 392 001a 2046     		mov	r0, r4
 393 001c 2946     		mov	r1, r5
 394 001e FFF7FEFF 		bl	__aeabi_dcmplt
 395              	.LVL46:
 396 0022 28B1     		cbz	r0, .L31
 397 0024 02E0     		b	.L35
 398              	.L34:
 138:self_functions.c ****     } else if (num < 0) 
 399              		.loc 1 138 0
 400 0026 0024     		movs	r4, #0
 401 0028 1E4D     		ldr	r5, .L37
 402 002a 01E0     		b	.L31
 403              	.L35:
 140:self_functions.c ****     {
 141:self_functions.c ****         num = 0.0;
 404              		.loc 1 141 0
 405 002c 0024     		movs	r4, #0
 406 002e 0025     		movs	r5, #0
 407              	.L31:
 408              	.LVL47:
 142:self_functions.c ****     }
 143:self_functions.c ****     if (direction) {
 409              		.loc 1 143 0
 410 0030 66B1     		cbz	r6, .L32
 144:self_functions.c ****         num = 0.5 * num + 50.0;
 411              		.loc 1 144 0
 412 0032 0022     		movs	r2, #0
 413 0034 1C4B     		ldr	r3, .L37+4
 414 0036 2046     		mov	r0, r4
 415 0038 2946     		mov	r1, r5
 416 003a FFF7FEFF 		bl	__aeabi_dmul
 417              	.LVL48:
 418 003e 0022     		movs	r2, #0
 419 0040 1A4B     		ldr	r3, .L37+8
 420 0042 FFF7FEFF 		bl	__aeabi_dadd
ARM GAS  C:\Users\18285\AppData\Local\Temp\ccCU0tpx.s 			page 11


 421              	.LVL49:
 422 0046 0646     		mov	r6, r0
 423              	.LVL50:
 424 0048 0F46     		mov	r7, r1
 425              	.LVL51:
 426 004a 0DE0     		b	.L33
 427              	.LVL52:
 428              	.L32:
 145:self_functions.c ****     } else {
 146:self_functions.c ****         num = 50.0 - 0.5 * num; 
 429              		.loc 1 146 0
 430 004c 0022     		movs	r2, #0
 431 004e 164B     		ldr	r3, .L37+4
 432 0050 2046     		mov	r0, r4
 433 0052 2946     		mov	r1, r5
 434 0054 FFF7FEFF 		bl	__aeabi_dmul
 435              	.LVL53:
 436 0058 0246     		mov	r2, r0
 437 005a 0B46     		mov	r3, r1
 438 005c 0020     		movs	r0, #0
 439 005e 1349     		ldr	r1, .L37+8
 440 0060 FFF7FEFF 		bl	__aeabi_dsub
 441              	.LVL54:
 442 0064 0646     		mov	r6, r0
 443              	.LVL55:
 444 0066 0F46     		mov	r7, r1
 445              	.LVL56:
 446              	.L33:
 147:self_functions.c ****     }
 148:self_functions.c ****     PWM_1_WriteCompare(((double)PWM_1_ReadPeriod()* (100 - num)) / 100);
 447              		.loc 1 148 0
 448 0068 FFF7FEFF 		bl	PWM_1_ReadPeriod
 449              	.LVL57:
 450 006c FFF7FEFF 		bl	__aeabi_ui2d
 451              	.LVL58:
 452 0070 0446     		mov	r4, r0
 453 0072 0D46     		mov	r5, r1
 454 0074 3246     		mov	r2, r6
 455 0076 3B46     		mov	r3, r7
 456 0078 0020     		movs	r0, #0
 457 007a 0A49     		ldr	r1, .L37
 458 007c FFF7FEFF 		bl	__aeabi_dsub
 459              	.LVL59:
 460 0080 0246     		mov	r2, r0
 461 0082 0B46     		mov	r3, r1
 462 0084 2046     		mov	r0, r4
 463 0086 2946     		mov	r1, r5
 464 0088 FFF7FEFF 		bl	__aeabi_dmul
 465              	.LVL60:
 466 008c 0022     		movs	r2, #0
 467 008e 054B     		ldr	r3, .L37
 468 0090 FFF7FEFF 		bl	__aeabi_ddiv
 469              	.LVL61:
 470 0094 FFF7FEFF 		bl	__aeabi_d2uiz
 471              	.LVL62:
 472 0098 80B2     		uxth	r0, r0
 473 009a FFF7FEFF 		bl	PWM_1_WriteCompare
ARM GAS  C:\Users\18285\AppData\Local\Temp\ccCU0tpx.s 			page 12


 474              	.LVL63:
 149:self_functions.c ****     PWM_1_SaveConfig();
 475              		.loc 1 149 0
 476 009e FFF7FEFF 		bl	PWM_1_SaveConfig
 477              	.LVL64:
 478 00a2 F8BD     		pop	{r3, r4, r5, r6, r7, pc}
 479              	.LVL65:
 480              	.L38:
 481              		.align	2
 482              	.L37:
 483 00a4 00005940 		.word	1079574528
 484 00a8 0000E03F 		.word	1071644672
 485 00ac 00004940 		.word	1078525952
 486              		.cfi_endproc
 487              	.LFE68:
 488              		.size	M1_set_speed, .-M1_set_speed
 489              		.section	.text.M2_set_speed,"ax",%progbits
 490              		.align	2
 491              		.global	M2_set_speed
 492              		.thumb
 493              		.thumb_func
 494              		.type	M2_set_speed, %function
 495              	M2_set_speed:
 496              	.LFB69:
 150:self_functions.c ****     
 151:self_functions.c **** }
 152:self_functions.c **** void M2_set_speed(int direction, double num){
 497              		.loc 1 152 0
 498              		.cfi_startproc
 499              		@ args = 0, pretend = 0, frame = 0
 500              		@ frame_needed = 0, uses_anonymous_args = 0
 501              	.LVL66:
 502 0000 70B5     		push	{r4, r5, r6, lr}
 503              		.cfi_def_cfa_offset 16
 504              		.cfi_offset 4, -16
 505              		.cfi_offset 5, -12
 506              		.cfi_offset 6, -8
 507              		.cfi_offset 14, -4
 508 0002 0646     		mov	r6, r0
 509 0004 1446     		mov	r4, r2
 510 0006 1D46     		mov	r5, r3
 153:self_functions.c ****     if (num > 100) 
 511              		.loc 1 153 0
 512 0008 0022     		movs	r2, #0
 513              	.LVL67:
 514 000a 224B     		ldr	r3, .L46
 515 000c 2046     		mov	r0, r4
 516              	.LVL68:
 517 000e 2946     		mov	r1, r5
 518 0010 FFF7FEFF 		bl	__aeabi_dcmpgt
 519              	.LVL69:
 520 0014 38B9     		cbnz	r0, .L43
 154:self_functions.c ****     {
 155:self_functions.c ****         num = 100.0;
 156:self_functions.c ****     } else if (num < 0) 
 521              		.loc 1 156 0
 522 0016 0022     		movs	r2, #0
ARM GAS  C:\Users\18285\AppData\Local\Temp\ccCU0tpx.s 			page 13


 523 0018 0023     		movs	r3, #0
 524 001a 2046     		mov	r0, r4
 525 001c 2946     		mov	r1, r5
 526 001e FFF7FEFF 		bl	__aeabi_dcmplt
 527              	.LVL70:
 528 0022 28B1     		cbz	r0, .L40
 529 0024 02E0     		b	.L44
 530              	.L43:
 155:self_functions.c ****     } else if (num < 0) 
 531              		.loc 1 155 0
 532 0026 0024     		movs	r4, #0
 533 0028 1A4D     		ldr	r5, .L46
 534 002a 01E0     		b	.L40
 535              	.L44:
 157:self_functions.c ****     {
 158:self_functions.c ****         num = 0.0;
 536              		.loc 1 158 0
 537 002c 0024     		movs	r4, #0
 538 002e 0025     		movs	r5, #0
 539              	.L40:
 540              	.LVL71:
 159:self_functions.c ****     }
 160:self_functions.c ****     if (direction) {
 541              		.loc 1 160 0
 542 0030 66B1     		cbz	r6, .L41
 161:self_functions.c ****         num = 0.5 * num + 50.0;
 543              		.loc 1 161 0
 544 0032 0022     		movs	r2, #0
 545 0034 184B     		ldr	r3, .L46+4
 546 0036 2046     		mov	r0, r4
 547 0038 2946     		mov	r1, r5
 548 003a FFF7FEFF 		bl	__aeabi_dmul
 549              	.LVL72:
 550 003e 0022     		movs	r2, #0
 551 0040 164B     		ldr	r3, .L46+8
 552 0042 FFF7FEFF 		bl	__aeabi_dadd
 553              	.LVL73:
 554 0046 0446     		mov	r4, r0
 555              	.LVL74:
 556 0048 0D46     		mov	r5, r1
 557              	.LVL75:
 558 004a 0DE0     		b	.L42
 559              	.L41:
 162:self_functions.c ****     } else {
 163:self_functions.c ****         num = 50.0 - 0.5 * num; 
 560              		.loc 1 163 0
 561 004c 0022     		movs	r2, #0
 562 004e 124B     		ldr	r3, .L46+4
 563 0050 2046     		mov	r0, r4
 564 0052 2946     		mov	r1, r5
 565 0054 FFF7FEFF 		bl	__aeabi_dmul
 566              	.LVL76:
 567 0058 0246     		mov	r2, r0
 568 005a 0B46     		mov	r3, r1
 569 005c 0020     		movs	r0, #0
 570 005e 0F49     		ldr	r1, .L46+8
 571 0060 FFF7FEFF 		bl	__aeabi_dsub
ARM GAS  C:\Users\18285\AppData\Local\Temp\ccCU0tpx.s 			page 14


 572              	.LVL77:
 573 0064 0446     		mov	r4, r0
 574              	.LVL78:
 575 0066 0D46     		mov	r5, r1
 576              	.LVL79:
 577              	.L42:
 164:self_functions.c ****     }
 165:self_functions.c ****     PWM_2_WriteCompare(((double)PWM_2_ReadPeriod()* num) / 100);
 578              		.loc 1 165 0
 579 0068 FFF7FEFF 		bl	PWM_2_ReadPeriod
 580              	.LVL80:
 581 006c FFF7FEFF 		bl	__aeabi_ui2d
 582              	.LVL81:
 583 0070 0246     		mov	r2, r0
 584 0072 0B46     		mov	r3, r1
 585 0074 2046     		mov	r0, r4
 586 0076 2946     		mov	r1, r5
 587 0078 FFF7FEFF 		bl	__aeabi_dmul
 588              	.LVL82:
 589 007c 0022     		movs	r2, #0
 590 007e 054B     		ldr	r3, .L46
 591 0080 FFF7FEFF 		bl	__aeabi_ddiv
 592              	.LVL83:
 593 0084 FFF7FEFF 		bl	__aeabi_d2uiz
 594              	.LVL84:
 595 0088 80B2     		uxth	r0, r0
 596 008a FFF7FEFF 		bl	PWM_2_WriteCompare
 597              	.LVL85:
 166:self_functions.c ****     PWM_2_SaveConfig();
 598              		.loc 1 166 0
 599 008e FFF7FEFF 		bl	PWM_2_SaveConfig
 600              	.LVL86:
 601 0092 70BD     		pop	{r4, r5, r6, pc}
 602              	.LVL87:
 603              	.L47:
 604              		.align	2
 605              	.L46:
 606 0094 00005940 		.word	1079574528
 607 0098 0000E03F 		.word	1071644672
 608 009c 00004940 		.word	1078525952
 609              		.cfi_endproc
 610              	.LFE69:
 611              		.size	M2_set_speed, .-M2_set_speed
 612              		.comm	system_state,32,4
 613              		.comm	usbBuffer,64,4
 614              		.comm	entry,64,4
 615              		.comm	line,64,4
 616              		.global	displaystring
 617              		.global	message_encoder
 618              		.global	flag_rf_transmission_active
 619              		.global	dataready_flag
 620              		.global	flag_KB_string
 621              		.global	flag_packet
 622              		.global	flag_rx
 623              		.global	flag_ts_display
 624              		.global	flag_ts_speed
 625              		.global	flag_ts_update
ARM GAS  C:\Users\18285\AppData\Local\Temp\ccCU0tpx.s 			page 15


 626              		.global	flag_ts_enc
 627              		.global	ts_display
 628              		.global	ts_speed
 629              		.global	ts_update
 630              		.global	ts_enc
 631              		.global	ts
 632              		.data
 633              		.align	2
 634              		.type	displaystring, %object
 635              		.size	displaystring, 64
 636              	displaystring:
 637 0000 43533330 		.ascii	"CS301 2016\012\000"
 637      31203230 
 637      31360A00 
 638 000c 00000000 		.space	52
 638      00000000 
 638      00000000 
 638      00000000 
 638      00000000 
 639              		.type	message_encoder, %object
 640              		.size	message_encoder, 64
 641              	message_encoder:
 642 0040 0D0A5468 		.ascii	"\015\012The speed is (rps): \000"
 642      65207370 
 642      65656420 
 642      69732028 
 642      72707329 
 643 0057 00000000 		.space	41
 643      00000000 
 643      00000000 
 643      00000000 
 643      00000000 
 644              		.type	flag_rf_transmission_active, %object
 645              		.size	flag_rf_transmission_active, 1
 646              	flag_rf_transmission_active:
 647 0080 0A       		.byte	10
 648              		.section	.rodata.str1.4,"aMS",%progbits,1
 649              		.align	2
 650              	.LC0:
 651 0000 464F5257 		.ascii	"FORWARD\000"
 651      41524400 
 652              	.LC1:
 653 0008 4C454654 		.ascii	"LEFT\000"
 653      00
 654 000d 000000   		.space	3
 655              	.LC2:
 656 0010 52494748 		.ascii	"RIGHT\000"
 656      5400
 657 0016 0000     		.space	2
 658              	.LC3:
 659 0018 4241434B 		.ascii	"BACKWARD\000"
 659      57415244 
 659      00
 660 0021 000000   		.space	3
 661              	.LC4:
 662 0024 57414954 		.ascii	"WAIT_STOP\000"
 662      5F53544F 
ARM GAS  C:\Users\18285\AppData\Local\Temp\ccCU0tpx.s 			page 16


 662      5000
 663 002e 0000     		.space	2
 664              	.LC5:
 665 0030 454E4400 		.ascii	"END\000"
 666              	.LC6:
 667 0034 4F544845 		.ascii	"OTHER\000"
 667      5200
 668              		.bss
 669              		.align	1
 670              		.set	.LANCHOR0,. + 0
 671              		.type	usbStarted.6806, %object
 672              		.size	usbStarted.6806, 1
 673              	usbStarted.6806:
 674 0000 00       		.space	1
 675 0001 00       		.space	1
 676              		.type	usbBufCount.6807, %object
 677              		.size	usbBufCount.6807, 2
 678              	usbBufCount.6807:
 679 0002 0000     		.space	2
 680              		.type	flag_KB_string, %object
 681              		.size	flag_KB_string, 1
 682              	flag_KB_string:
 683 0004 00       		.space	1
 684              		.type	dataready_flag, %object
 685              		.size	dataready_flag, 1
 686              	dataready_flag:
 687 0005 00       		.space	1
 688              		.type	flag_packet, %object
 689              		.size	flag_packet, 1
 690              	flag_packet:
 691 0006 00       		.space	1
 692              		.type	flag_rx, %object
 693              		.size	flag_rx, 1
 694              	flag_rx:
 695 0007 00       		.space	1
 696              		.type	flag_ts_display, %object
 697              		.size	flag_ts_display, 1
 698              	flag_ts_display:
 699 0008 00       		.space	1
 700              		.type	flag_ts_speed, %object
 701              		.size	flag_ts_speed, 1
 702              	flag_ts_speed:
 703 0009 00       		.space	1
 704              		.type	flag_ts_update, %object
 705              		.size	flag_ts_update, 1
 706              	flag_ts_update:
 707 000a 00       		.space	1
 708              		.type	flag_ts_enc, %object
 709              		.size	flag_ts_enc, 1
 710              	flag_ts_enc:
 711 000b 00       		.space	1
 712              		.type	ts_display, %object
 713              		.size	ts_display, 2
 714              	ts_display:
 715 000c 0000     		.space	2
 716              		.type	ts_speed, %object
 717              		.size	ts_speed, 2
ARM GAS  C:\Users\18285\AppData\Local\Temp\ccCU0tpx.s 			page 17


 718              	ts_speed:
 719 000e 0000     		.space	2
 720              		.type	ts_update, %object
 721              		.size	ts_update, 2
 722              	ts_update:
 723 0010 0000     		.space	2
 724              		.type	ts_enc, %object
 725              		.size	ts_enc, 2
 726              	ts_enc:
 727 0012 0000     		.space	2
 728              		.type	ts, %object
 729              		.size	ts, 1
 730              	ts:
 731 0014 00       		.space	1
 732              		.text
 733              	.Letext0:
 734              		.file 2 "c:\\program files (x86)\\cypress\\psoc creator\\4.4\\psoc creator\\import\\gnu\\arm\\5.4.
 735              		.file 3 "c:\\program files (x86)\\cypress\\psoc creator\\4.4\\psoc creator\\import\\gnu\\arm\\5.4.
 736              		.file 4 "Generated_Source\\PSoC5/cytypes.h"
 737              		.file 5 "vars.h"
 738              		.file 6 "Generated_Source\\PSoC5/core_cm3.h"
 739              		.file 7 "Generated_Source\\PSoC5/USBUART_cdc.h"
 740              		.file 8 "c:\\program files (x86)\\cypress\\psoc creator\\4.4\\psoc creator\\import\\gnu\\arm\\5.4.
 741              		.file 9 "Generated_Source\\PSoC5/USBUART.h"
 742              		.file 10 "Generated_Source\\PSoC5/PWM_1.h"
 743              		.file 11 "Generated_Source\\PSoC5/PWM_2.h"
 744              		.file 12 "Generated_Source\\PSoC5/M1_D1.h"
 745              		.file 13 "Generated_Source\\PSoC5/QuadDec_M1.h"
 746              		.file 14 "Generated_Source\\PSoC5/QuadDec_M2.h"
 747              		.file 15 "self_functions.h"