ARM GAS  C:\Users\User\AppData\Local\Temp\ccTL9jue.s 			page 1


   1              		.syntax unified
   2              		.cpu cortex-m3
   3              		.fpu softvfp
   4              		.eabi_attribute 20, 1
   5              		.eabi_attribute 21, 1
   6              		.eabi_attribute 23, 3
   7              		.eabi_attribute 24, 1
   8              		.eabi_attribute 25, 1
   9              		.eabi_attribute 26, 1
  10              		.eabi_attribute 30, 1
  11              		.eabi_attribute 34, 1
  12              		.eabi_attribute 18, 4
  13              		.thumb
  14              		.syntax unified
  15              		.file	"tacho.c"
  16              		.text
  17              	.Ltext0:
  18              		.cfi_sections	.debug_frame
  19              		.section	.text.get_position,"ax",%progbits
  20              		.align	2
  21              		.global	get_position
  22              		.thumb
  23              		.thumb_func
  24              		.type	get_position, %function
  25              	get_position:
  26              	.LFB63:
  27              		.file 1 "tacho.c"
   1:tacho.c       **** /* ========================================
   2:tacho.c       ****  *
   3:tacho.c       ****  * Copyright YOUR COMPANY, THE YEAR
   4:tacho.c       ****  * All Rights Reserved
   5:tacho.c       ****  * UNPUBLISHED, LICENSED SOFTWARE.
   6:tacho.c       ****  *
   7:tacho.c       ****  * CONFIDENTIAL AND PROPRIETARY INFORMATION
   8:tacho.c       ****  * WHICH IS THE PROPERTY OF your company.
   9:tacho.c       ****  *
  10:tacho.c       ****  * ========================================
  11:tacho.c       **** */
  12:tacho.c       **** 
  13:tacho.c       **** #include <project.h>
  14:tacho.c       **** #include "defines.h"
  15:tacho.c       **** 
  16:tacho.c       **** extern int16 speedL, speedR;
  17:tacho.c       **** extern int16 posL, posR;
  18:tacho.c       **** 
  19:tacho.c       **** volatile int16 speed;
  20:tacho.c       **** volatile uint8 state;
  21:tacho.c       **** 
  22:tacho.c       **** //void get_position(void);
  23:tacho.c       **** //void get_speed(void);
  24:tacho.c       **** 
  25:tacho.c       **** //------------------------------------------------------
  26:tacho.c       **** void get_position()
  27:tacho.c       **** {
  28              		.loc 1 27 0
  29              		.cfi_startproc
  30              		@ args = 0, pretend = 0, frame = 0
ARM GAS  C:\Users\User\AppData\Local\Temp\ccTL9jue.s 			page 2


  31              		@ frame_needed = 0, uses_anonymous_args = 0
  32 0000 10B5     		push	{r4, lr}
  33              		.cfi_def_cfa_offset 8
  34              		.cfi_offset 4, -8
  35              		.cfi_offset 14, -4
  28:tacho.c       ****     int pl, pr;
  29:tacho.c       **** 
  30:tacho.c       ****     pl = QuadDec_M1_GetCounter();
  36              		.loc 1 30 0
  37 0002 FFF7FEFF 		bl	QuadDec_M1_GetCounter
  38              	.LVL0:
  39 0006 0446     		mov	r4, r0
  40              	.LVL1:
  31:tacho.c       ****     pr = QuadDec_M2_GetCounter();
  41              		.loc 1 31 0
  42 0008 FFF7FEFF 		bl	QuadDec_M2_GetCounter
  43              	.LVL2:
  32:tacho.c       **** 
  33:tacho.c       ****     posL = pl;
  44              		.loc 1 33 0
  45 000c 024B     		ldr	r3, .L3
  46 000e 1C80     		strh	r4, [r3]	@ movhi
  34:tacho.c       ****     posR = pr;
  47              		.loc 1 34 0
  48 0010 024B     		ldr	r3, .L3+4
  49 0012 1880     		strh	r0, [r3]	@ movhi
  50 0014 10BD     		pop	{r4, pc}
  51              	.LVL3:
  52              	.L4:
  53 0016 00BF     		.align	2
  54              	.L3:
  55 0018 00000000 		.word	posL
  56 001c 00000000 		.word	posR
  57              		.cfi_endproc
  58              	.LFE63:
  59              		.size	get_position, .-get_position
  60              		.section	.text.get_speed,"ax",%progbits
  61              		.align	2
  62              		.global	get_speed
  63              		.thumb
  64              		.thumb_func
  65              		.type	get_speed, %function
  66              	get_speed:
  67              	.LFB64:
  35:tacho.c       **** }
  36:tacho.c       **** 
  37:tacho.c       **** //------------------------------------------------------
  38:tacho.c       **** void get_speed()
  39:tacho.c       **** {
  68              		.loc 1 39 0
  69              		.cfi_startproc
  70              		@ args = 0, pretend = 0, frame = 0
  71              		@ frame_needed = 0, uses_anonymous_args = 0
  72 0000 38B5     		push	{r3, r4, r5, lr}
  73              		.cfi_def_cfa_offset 16
  74              		.cfi_offset 3, -16
  75              		.cfi_offset 4, -12
ARM GAS  C:\Users\User\AppData\Local\Temp\ccTL9jue.s 			page 3


  76              		.cfi_offset 5, -8
  77              		.cfi_offset 14, -4
  40:tacho.c       ****     int16 pl, pr;
  41:tacho.c       ****     
  42:tacho.c       ****     // get current position.
  43:tacho.c       ****     pl = QuadDec_M1_GetCounter();
  78              		.loc 1 43 0
  79 0002 FFF7FEFF 		bl	QuadDec_M1_GetCounter
  80              	.LVL4:
  81 0006 0446     		mov	r4, r0
  82              	.LVL5:
  44:tacho.c       ****     pr = QuadDec_M2_GetCounter();
  83              		.loc 1 44 0
  84 0008 FFF7FEFF 		bl	QuadDec_M2_GetCounter
  85              	.LVL6:
  45:tacho.c       ****     
  46:tacho.c       ****     speedL = pl - posL;
  86              		.loc 1 46 0
  87 000c 0649     		ldr	r1, .L7
  88 000e 0B88     		ldrh	r3, [r1]
  89 0010 E31A     		subs	r3, r4, r3
  90 0012 064A     		ldr	r2, .L7+4
  91 0014 1380     		strh	r3, [r2]	@ movhi
  47:tacho.c       ****     speedR = pr - posR;
  92              		.loc 1 47 0
  93 0016 064A     		ldr	r2, .L7+8
  94 0018 1388     		ldrh	r3, [r2]
  95 001a C31A     		subs	r3, r0, r3
  96 001c 054D     		ldr	r5, .L7+12
  97 001e 2B80     		strh	r3, [r5]	@ movhi
  48:tacho.c       ****     posL = pl;
  98              		.loc 1 48 0
  99 0020 0C80     		strh	r4, [r1]	@ movhi
  49:tacho.c       ****     posR = pr;
 100              		.loc 1 49 0
 101 0022 1080     		strh	r0, [r2]	@ movhi
 102 0024 38BD     		pop	{r3, r4, r5, pc}
 103              	.LVL7:
 104              	.L8:
 105 0026 00BF     		.align	2
 106              	.L7:
 107 0028 00000000 		.word	posL
 108 002c 00000000 		.word	speedL
 109 0030 00000000 		.word	posR
 110 0034 00000000 		.word	speedR
 111              		.cfi_endproc
 112              	.LFE64:
 113              		.size	get_speed, .-get_speed
 114              		.comm	state,1,1
 115              		.comm	speed,2,2
 116              		.text
 117              	.Letext0:
 118              		.file 2 "d:\\psoc creator\\4.4\\psoc creator\\import\\gnu\\arm\\5.4.1\\arm-none-eabi\\include\\mac
 119              		.file 3 "d:\\psoc creator\\4.4\\psoc creator\\import\\gnu\\arm\\5.4.1\\arm-none-eabi\\include\\sys
 120              		.file 4 "Generated_Source\\PSoC5/cytypes.h"
 121              		.file 5 "Generated_Source\\PSoC5/core_cm3.h"
 122              		.file 6 "Generated_Source\\PSoC5/QuadDec_M1.h"
ARM GAS  C:\Users\User\AppData\Local\Temp\ccTL9jue.s 			page 4


 123              		.file 7 "Generated_Source\\PSoC5/QuadDec_M2.h"